###############################################################################
#                                                                             #
# IAR C/C++ Compiler V8.10.3.10338/W32 for 8051         27/May/2023  13:28:59 #
# Copyright 2004-2011 IAR Systems AB.                                         #
#                                                                             #
#    Core               =  plain                                              #
#    Code model         =  banked                                             #
#    Data model         =  large                                              #
#    Calling convention =  xdata reentrant                                    #
#    Constant location  =  data_rom                                           #
#    Dptr setup         =  1,16                                               #
#    Source file        =  C:\Users\86158\Desktop\8.气体传感器\ZStack-CC2530- #
#                          2.3.0-1.4.0\Projects\zstack\Samples\SampleApp\Sour #
#                          ce\SampleApp.c                                     #
#    Command line       =  -f C:\Users\86158\Desktop\8.气体传感器\ZStack-CC25 #
#                          30-2.3.0-1.4.0\Projects\zstack\Samples\SampleApp\C #
#                          C2530DB\..\..\..\Tools\CC2530DB\f8wEndev.cfg       #
#                          (-DCPU32MHZ -DROOT=__near_func -DBLINK_LEDS) -f    #
#                          C:\Users\86158\Desktop\8.气体传感器\ZStack-CC2530- #
#                          2.3.0-1.4.0\Projects\zstack\Samples\SampleApp\CC25 #
#                          30DB\..\..\..\Tools\CC2530DB\f8wConfig.cfg         #
#                          (-DSECURE=0 -DZG_SECURE_DYNAMIC=0 -DREFLECTOR      #
#                          -DDEFAULT_CHANLIST=0x00000800                      #
#                          -DZDAPP_CONFIG_PAN_ID=0xFFF1                       #
#                          -DNWK_START_DELAY=100 -DEXTENDED_JOINING_RANDOM_MA #
#                          SK=0x007F -DBEACON_REQUEST_DELAY=100               #
#                          -DBEACON_REQ_DELAY_MASK=0x00FF                     #
#                          -DROUTE_EXPIRY_TIME=30 -DAPSC_ACK_WAIT_DURATION_PO #
#                          LLED=3000 -DNWK_INDIRECT_MSG_TIMEOUT=7             #
#                          -DMAX_RREQ_ENTRIES=8 -DAPSC_MAX_FRAME_RETRIES=3    #
#                          -DNWK_MAX_DATA_RETRIES=2                           #
#                          -DMAX_POLL_FAILURE_RETRIES=2 -DMAX_BCAST=9         #
#                          -DAPS_MAX_GROUPS=16 -DMAX_RTG_ENTRIES=40           #
#                          -DNWK_MAX_BINDING_ENTRIES=4                        #
#                          -DMAX_BINDING_CLUSTER_IDS=4 "-DDEFAULT_KEY={0x01,  #
#                          0x03, 0x05, 0x07, 0x09, 0x0B, 0x0D, 0x0F, 0x00,    #
#                          0x02, 0x04, 0x06, 0x08, 0x0A, 0x0C, 0x0D}"         #
#                          -DMAC_MAX_FRAME_SIZE=116 "-DCONST=const __code"    #
#                          -DGENERIC=__generic -DRFD_RCVC_ALWAYS_ON=FALSE     #
#                          -DPOLL_RATE=1000 -DQUEUED_POLL_RATE=100            #
#                          -DRESPONSE_POLL_RATE=100) -DREJOIN_POLL_RATE=440   #
#                          C:\Users\86158\Desktop\8.气体传感器\ZStack-CC2530- #
#                          2.3.0-1.4.0\Projects\zstack\Samples\SampleApp\Sour #
#                          ce\SampleApp.c -D ZIGBEEPRO -D NWK_AUTO_POLL -D    #
#                          ZTOOL_P1 -D xMT_TASK -D xMT_SYS_FUNC -D            #
#                          xMT_ZDO_FUNC -D LCD_SUPPORTED=DEBUG -lC            #
#                          C:\Users\86158\Desktop\8.气体传感器\ZStack-CC2530- #
#                          2.3.0-1.4.0\Projects\zstack\Samples\SampleApp\CC25 #
#                          30DB\EndDeviceEB-Pro\List\ -lA                     #
#                          C:\Users\86158\Desktop\8.气体传感器\ZStack-CC2530- #
#                          2.3.0-1.4.0\Projects\zstack\Samples\SampleApp\CC25 #
#                          30DB\EndDeviceEB-Pro\List\ --diag_suppress         #
#                          Pe001,Pa010 -o C:\Users\86158\Desktop\8.气体传感器 #
#                          \ZStack-CC2530-2.3.0-1.4.0\Projects\zstack\Samples #
#                          \SampleApp\CC2530DB\EndDeviceEB-Pro\Obj\ -e        #
#                          --debug --core=plain --dptr=16,1                   #
#                          --data_model=large --code_model=banked             #
#                          --calling_convention=xdata_reentrant               #
#                          --place_constants=data_rom --nr_virtual_regs 16    #
#                          -I C:\Users\86158\Desktop\8.气体传感器\ZStack-CC25 #
#                          30-2.3.0-1.4.0\Projects\zstack\Samples\SampleApp\C #
#                          C2530DB\ -I C:\Users\86158\Desktop\8.气体传感器\ZS #
#                          tack-CC2530-2.3.0-1.4.0\Projects\zstack\Samples\Sa #
#                          mpleApp\CC2530DB\..\SOURCE\ -I                     #
#                          C:\Users\86158\Desktop\8.气体传感器\ZStack-CC2530- #
#                          2.3.0-1.4.0\Projects\zstack\Samples\SampleApp\CC25 #
#                          30DB\..\..\..\ZMAIN\TI2530DB\ -I                   #
#                          C:\Users\86158\Desktop\8.气体传感器\ZStack-CC2530- #
#                          2.3.0-1.4.0\Projects\zstack\Samples\SampleApp\CC25 #
#                          30DB\..\..\..\..\..\COMPONENTS\MT\ -I              #
#                          C:\Users\86158\Desktop\8.气体传感器\ZStack-CC2530- #
#                          2.3.0-1.4.0\Projects\zstack\Samples\SampleApp\CC25 #
#                          30DB\..\..\..\..\..\COMPONENTS\HAL\INCLUDE\ -I     #
#                          C:\Users\86158\Desktop\8.气体传感器\ZStack-CC2530- #
#                          2.3.0-1.4.0\Projects\zstack\Samples\SampleApp\CC25 #
#                          30DB\..\..\..\..\..\COMPONENTS\HAL\TARGET\CC2530EB #
#                          \ -I C:\Users\86158\Desktop\8.气体传感器\ZStack-CC #
#                          2530-2.3.0-1.4.0\Projects\zstack\Samples\SampleApp #
#                          \CC2530DB\..\..\..\..\..\COMPONENTS\OSAL\MCU\CCSOC #
#                          \ -I C:\Users\86158\Desktop\8.气体传感器\ZStack-CC #
#                          2530-2.3.0-1.4.0\Projects\zstack\Samples\SampleApp #
#                          \CC2530DB\..\..\..\..\..\COMPONENTS\OSAL\INCLUDE\  #
#                          -I C:\Users\86158\Desktop\8.气体传感器\ZStack-CC25 #
#                          30-2.3.0-1.4.0\Projects\zstack\Samples\SampleApp\C #
#                          C2530DB\..\..\..\..\..\COMPONENTS\STACK\AF\ -I     #
#                          C:\Users\86158\Desktop\8.气体传感器\ZStack-CC2530- #
#                          2.3.0-1.4.0\Projects\zstack\Samples\SampleApp\CC25 #
#                          30DB\..\..\..\..\..\COMPONENTS\STACK\NWK\ -I       #
#                          C:\Users\86158\Desktop\8.气体传感器\ZStack-CC2530- #
#                          2.3.0-1.4.0\Projects\zstack\Samples\SampleApp\CC25 #
#                          30DB\..\..\..\..\..\COMPONENTS\STACK\SEC\ -I       #
#                          C:\Users\86158\Desktop\8.气体传感器\ZStack-CC2530- #
#                          2.3.0-1.4.0\Projects\zstack\Samples\SampleApp\CC25 #
#                          30DB\..\..\..\..\..\COMPONENTS\STACK\SAPI\ -I      #
#                          C:\Users\86158\Desktop\8.气体传感器\ZStack-CC2530- #
#                          2.3.0-1.4.0\Projects\zstack\Samples\SampleApp\CC25 #
#                          30DB\..\..\..\..\..\COMPONENTS\STACK\SYS\ -I       #
#                          C:\Users\86158\Desktop\8.气体传感器\ZStack-CC2530- #
#                          2.3.0-1.4.0\Projects\zstack\Samples\SampleApp\CC25 #
#                          30DB\..\..\..\..\..\COMPONENTS\STACK\ZDO\ -I       #
#                          C:\Users\86158\Desktop\8.气体传感器\ZStack-CC2530- #
#                          2.3.0-1.4.0\Projects\zstack\Samples\SampleApp\CC25 #
#                          30DB\..\..\..\..\..\COMPONENTS\ZMAC\F8W\ -I        #
#                          C:\Users\86158\Desktop\8.气体传感器\ZStack-CC2530- #
#                          2.3.0-1.4.0\Projects\zstack\Samples\SampleApp\CC25 #
#                          30DB\..\..\..\..\..\COMPONENTS\ZMAC\ -I            #
#                          C:\Users\86158\Desktop\8.气体传感器\ZStack-CC2530- #
#                          2.3.0-1.4.0\Projects\zstack\Samples\SampleApp\CC25 #
#                          30DB\..\..\..\..\..\COMPONENTS\SERVICES\SADDR\ -I  #
#                          C:\Users\86158\Desktop\8.气体传感器\ZStack-CC2530- #
#                          2.3.0-1.4.0\Projects\zstack\Samples\SampleApp\CC25 #
#                          30DB\..\..\..\..\..\COMPONENTS\SERVICES\SDATA\ -I  #
#                          C:\Users\86158\Desktop\8.气体传感器\ZStack-CC2530- #
#                          2.3.0-1.4.0\Projects\zstack\Samples\SampleApp\CC25 #
#                          30DB\..\..\..\..\..\COMPONENTS\MAC\INCLUDE\ -I     #
#                          C:\Users\86158\Desktop\8.气体传感器\ZStack-CC2530- #
#                          2.3.0-1.4.0\Projects\zstack\Samples\SampleApp\CC25 #
#                          30DB\..\..\..\..\..\COMPONENTS\MAC\HIGH_LEVEL\ -I  #
#                          C:\Users\86158\Desktop\8.气体传感器\ZStack-CC2530- #
#                          2.3.0-1.4.0\Projects\zstack\Samples\SampleApp\CC25 #
#                          30DB\..\..\..\..\..\COMPONENTS\MAC\LOW_LEVEL\srf04 #
#                          \ -I C:\Users\86158\Desktop\8.气体传感器\ZStack-CC #
#                          2530-2.3.0-1.4.0\Projects\zstack\Samples\SampleApp #
#                          \CC2530DB\..\..\..\..\..\COMPONENTS\MAC\LOW_LEVEL\ #
#                          srf04\SINGLE_CHIP\ -Ohz --require_prototypes       #
#    List file          =  C:\Users\86158\Desktop\8.气体传感器\ZStack-CC2530- #
#                          2.3.0-1.4.0\Projects\zstack\Samples\SampleApp\CC25 #
#                          30DB\EndDeviceEB-Pro\List\SampleApp.lst            #
#    Object file        =  C:\Users\86158\Desktop\8.气体传感器\ZStack-CC2530- #
#                          2.3.0-1.4.0\Projects\zstack\Samples\SampleApp\CC25 #
#                          30DB\EndDeviceEB-Pro\Obj\SampleApp.r51             #
#                                                                             #
#                                                                             #
###############################################################################

C:\Users\86158\Desktop\8.气体传感器\ZStack-CC2530-2.3.0-1.4.0\Projects\zstack\Samples\SampleApp\Source\SampleApp.c
      1          /**************************************************************************************************
      2            Filename:       SampleApp.c
      3            Revised:        $Date: 2009-03-18 15:56:27 -0700 (Wed, 18 Mar 2009) $
      4            Revision:       $Revision: 19453 $
      5          
      6            Description:    Sample Application (no Profile).
      7          
      8          
      9            Copyright 2007 Texas Instruments Incorporated. All rights reserved.
     10          
     11            IMPORTANT: Your use of this Software is limited to those specific rights
     12            granted under the terms of a software license agreement between the user
     13            who downloaded the software, his/her employer (which must be your employer)
     14            and Texas Instruments Incorporated (the "License").  You may not use this
     15            Software unless you agree to abide by the terms of the License. The License
     16            limits your use, and you acknowledge, that the Software may not be modified,
     17            copied or distributed unless embedded on a Texas Instruments microcontroller
     18            or used solely and exclusively in conjunction with a Texas Instruments radio
     19            frequency transceiver, which is integrated into your product.  Other than for
     20            the foregoing purpose, you may not use, reproduce, copy, prepare derivative
     21            works of, modify, distribute, perform, display or sell this Software and/or
     22            its documentation for any purpose.
     23          
     24            YOU FURTHER ACKNOWLEDGE AND AGREE THAT THE SOFTWARE AND DOCUMENTATION ARE
     25            PROVIDED AS IS?WITHOUT WARRANTY OF ANY KIND, EITHER EXPRESS OR IMPLIED,
     26            INCLUDING WITHOUT LIMITATION, ANY WARRANTY OF MERCHANTABILITY, TITLE,
     27            NON-INFRINGEMENT AND FITNESS FOR A PARTICULAR PURPOSE. IN NO EVENT SHALL
     28            TEXAS INSTRUMENTS OR ITS LICENSORS BE LIABLE OR OBLIGATED UNDER CONTRACT,
     29            NEGLIGENCE, STRICT LIABILITY, CONTRIBUTION, BREACH OF WARRANTY, OR OTHER
     30            LEGAL EQUITABLE THEORY ANY DIRECT OR INDIRECT DAMAGES OR EXPENSES
     31            INCLUDING BUT NOT LIMITED TO ANY INCIDENTAL, SPECIAL, INDIRECT, PUNITIVE
     32            OR CONSEQUENTIAL DAMAGES, LOST PROFITS OR LOST DATA, COST OF PROCUREMENT
     33            OF SUBSTITUTE GOODS, TECHNOLOGY, SERVICES, OR ANY CLAIMS BY THIRD PARTIES
     34            (INCLUDING BUT NOT LIMITED TO ANY DEFENSE THEREOF), OR OTHER SIMILAR COSTS.
     35          
     36            Should you have any questions regarding your right to use this Software,
     37            contact Texas Instruments Incorporated at www.TI.com.
     38          **************************************************************************************************/
     39          
     40          /*********************************************************************
     41            This application isn't intended to do anything useful, it is
     42            intended to be a simple example of an application's structure.
     43          
     44            This application sends it's messages either as broadcast or
     45            broadcast filtered group messages.  The other (more normal)
     46            message addressing is unicast.  Most of the other sample
     47            applications are written to support the unicast message model.
     48          
     49            Key control:
     50              SW1:  Sends a flash command to all devices in Group 1.
     51              SW2:  Adds/Removes (toggles) this device in and out
     52                    of Group 1.  This will enable and disable the
     53                    reception of the flash command.
     54          *********************************************************************/
     55          
     56          /*********************************************************************
     57           * INCLUDES
     58           */
     59          #include "OSAL.h"
     60          #include "ZGlobals.h"
     61          #include "AF.h"
     62          #include "aps_groups.h"
     63          #include "ZDApp.h"
     64          #include <ioCC2530.h>

   \                                 In  segment SFR_AN, at 0x80
   \   union <unnamed> volatile __sfr _A_P0
   \                     _A_P0:
   \   000000                DS 1

   \                                 In  segment SFR_AN, at 0xb4
   \   unsigned char volatile __sfr ADCCON1
   \                     ADCCON1:
   \   000000                DS 1

   \                                 In  segment SFR_AN, at 0xb6
   \   unsigned char volatile __sfr ADCCON3
   \                     ADCCON3:
   \   000000                DS 1

   \                                 In  segment SFR_AN, at 0xba
   \   unsigned char volatile __sfr ADCL
   \                     ADCL:
   \   000000                DS 1

   \                                 In  segment SFR_AN, at 0xbb
   \   unsigned char volatile __sfr ADCH
   \                     ADCH:
   \   000000                DS 1

   \                                 In  segment SFR_AN, at 0xf2
   \   unsigned char volatile __sfr ADCCFG
   \                     ADCCFG:
   \   000000                DS 1

   \                                 In  segment SFR_AN, at 0xf3
   \   unsigned char volatile __sfr P0SEL
   \                     P0SEL:
   \   000000                DS 1

   \                                 In  segment SFR_AN, at 0xfd
   \   unsigned char volatile __sfr P0DIR
   \                     P0DIR:
   \   000000                DS 1
     65          
     66          #include "SampleApp.h"
     67          #include "SampleAppHw.h"
     68          
     69          #include "OnBoard.h"
     70          
     71          /* HAL */
     72          #include "hal_lcd.h"
     73          #include "hal_led.h"
     74          #include "hal_key.h"
     75          #include "MT_UART.h"
     76          #include "MT_APP.h"
     77          #include "MT.h"
     78          //#include "DS1302.h"
     79          #include "DHT11.h"
     80          #include <stdio.h>
     81          #include <string.h>
     82          
     83          /*********************************************************************
     84           * MACROS
     85           */
     86          #define ARRAY_SIZE(arr) (sizeof(arr) / sizeof(arr)[0])

   \                                 In  segment XDATA_I, align 1, keep-with-next
     87          uint8 flat = 1;
   \                     flat:
   \   000000                DS 1
   \   000001                REQUIRE `?<Initializer for flat>`
   \   000001                REQUIRE __INIT_XDATA_I

   \                                 In  segment XDATA_Z, align 1, keep-with-next
     88          uint8 con_succ=0;
   \                     con_succ:
   \   000000                DS 1
   \   000001                REQUIRE __INIT_XDATA_Z

   \                                 In  segment XDATA_Z, align 1, keep-with-next
     89          uint8 food_flag=0;
   \                     food_flag:
   \   000000                DS 1
   \   000001                REQUIRE __INIT_XDATA_Z
     90          //获取食物重量定义的变量

   \                                 In  segment XDATA_Z, align 1, keep-with-next
     91          uint8 getmaopi_flag=0;
   \                     getmaopi_flag:
   \   000000                DS 1
   \   000001                REQUIRE __INIT_XDATA_Z

   \                                 In  segment XDATA_Z, align 1, keep-with-next
     92          unsigned long HX711_Buffer = 0;
   \                     HX711_Buffer:
   \   000000                DS 4
   \   000004                REQUIRE __INIT_XDATA_Z

   \                                 In  segment XDATA_Z, align 1, keep-with-next
     93          unsigned long  Weight_Maopi = 0,Weight_Shiwu = 0;
   \                     Weight_Maopi:
   \   000000                DS 4
   \   000004                REQUIRE __INIT_XDATA_Z

   \                                 In  segment XDATA_Z, align 1, keep-with-next
   \                     Weight_Shiwu:
   \   000000                DS 4
   \   000004                REQUIRE __INIT_XDATA_Z

   \                                 In  segment XDATA_Z, align 1, keep-with-next
     94          float Weight = 0;
   \                     Weight:
   \   000000                DS 4
   \   000004                REQUIRE __INIT_XDATA_Z

   \                                 In  segment XDATA_Z, align 1, keep-with-next
     95          uint16 count=0;
   \                     count:
   \   000000                DS 2
   \   000002                REQUIRE __INIT_XDATA_Z

   \                                 In  segment XDATA_Z, align 1, keep-with-next
     96          uint8 Sethour,Setmiunte;
   \                     Sethour:
   \   000000                DS 1
   \   000001                REQUIRE __INIT_XDATA_Z

   \                                 In  segment XDATA_Z, align 1, keep-with-next
   \                     Setmiunte:
   \   000000                DS 1
   \   000001                REQUIRE __INIT_XDATA_Z
     97          #define GapValue 430
     98          //需要修改的是下面4行
     99          #define  devkey   "REWZhCwwBa=6WWaBam6onjn5=HM="   //onenet平台产品apikey
    100          #define  devid    "1067058780"                      //onenet平台设备id
    101          #define  LYSSID   "Redmi_K40"                      // 修改你路由器的SSId
    102          #define  LYPASSWD "15876376419"                   // 修改你路由器的密码
    103          
    104          #define WIFIRESET       P0_6                            // P0.6口控制reset
    105          //WIFI连接命令
    106          #define AT_C       "AT\r\n"
    107          #define CWMODE_C   "AT+CWMODE=3\r\n"  //STA+AP模式
    108          //#define CIPSTART_C "AT+CIPSTART=\"TCP\",\"192.168.1.3\",8234\r\n" //连接HTTP服务器192.168.1.4,8234  8234是服务器的端口号 ---本地测试
    109          #define CIPSTART_C "AT+CIPSTART=\"TCP\",\"183.230.40.39\",6002\r\n"   //连接云服务器
    110          //#define CIPTIME_C "AT+CIPSTART=\"TCP\",\"www.beijing-time.org\",80\r\n"   //连接时间服务器
    111          #define CIPMODE_C  "AT+CIPMODE=1\r\n"   //透传模式
    112          #define CIPSEND_C  "AT+CIPSEND\r\n"     //发送数据的指令
    113          
    114          //#define HAL_LCD TRUE
    115          /*********************************************************************
    116           * CONSTANTS
    117           */
    118          
    119          /*********************************************************************
    120           * TYPEDEFS
    121           */
    122          
    123          /*********************************************************************
    124           * GLOBAL VARIABLES
    125           */
    126          
    127          // This list should be filled with Application specific Cluster IDs.

   \                                 In  segment XDATA_ROM_C, align 1
    128          const cId_t SampleApp_ClusterList[SAMPLEAPP_MAX_CLUSTERS] =
   \                     SampleApp_ClusterList:
   \   000000   0100         DW 1
   \   000002   0200         DW 2
    129          {
    130            SAMPLEAPP_PERIODIC_CLUSTERID,
    131            SAMPLEAPP_FLASH_CLUSTERID
    132          };
    133          

   \                                 In  segment XDATA_ROM_C, align 1
    134          const SimpleDescriptionFormat_t SampleApp_SimpleDesc =
   \                     SampleApp_SimpleDesc:
   \   000000   14           DB 20
   \   000001   080F         DW 3848
   \   000003   0100         DW 1
   \   000005   00           DB 0
   \   000006   02           DB 2
   \   000007   ....         DW SampleApp_ClusterList
   \   000009   02           DB 2
   \   00000A   ....         DW SampleApp_ClusterList
    135          {
    136            SAMPLEAPP_ENDPOINT,              //  int Endpoint;
    137            SAMPLEAPP_PROFID,                //  uint16 AppProfId[2];
    138            SAMPLEAPP_DEVICEID,              //  uint16 AppDeviceId[2];
    139            SAMPLEAPP_DEVICE_VERSION,        //  int   AppDevVer:4;
    140            SAMPLEAPP_FLAGS,                 //  int   AppFlags:4;
    141            SAMPLEAPP_MAX_CLUSTERS,          //  uint8  AppNumInClusters;
    142            (cId_t *)SampleApp_ClusterList,  //  uint8 *pAppInClusterList;
    143            SAMPLEAPP_MAX_CLUSTERS,          //  uint8  AppNumInClusters;
    144            (cId_t *)SampleApp_ClusterList   //  uint8 *pAppInClusterList;
    145          };
    146          
    147          // This is the Endpoint/Interface description.  It is defined here, but
    148          // filled-in in SampleApp_Init().  Another way to go would be to fill
    149          // in the structure here and make it a "const" (in code space).  The
    150          // way it's defined in this sample app it is define in RAM.

   \                                 In  segment XDATA_Z, align 1, keep-with-next
    151          endPointDesc_t SampleApp_epDesc;
   \                     SampleApp_epDesc:
   \   000000                DS 6
   \   000006                REQUIRE __INIT_XDATA_Z
    152          
    153          /*********************************************************************
    154           * EXTERNAL VARIABLES
    155           */
    156          
    157          /*********************************************************************
    158           * EXTERNAL FUNCTIONS
    159           */
    160          
    161          /*********************************************************************
    162           * LOCAL VARIABLES
    163           */

   \                                 In  segment XDATA_Z, align 1, keep-with-next
    164          uint8 SampleApp_TaskID;   // Task ID for internal task/event processing
   \                     SampleApp_TaskID:
   \   000000                DS 1
   \   000001                REQUIRE __INIT_XDATA_Z
    165                                    // This variable will be received when
    166                                    // SampleApp_Init() is called.

   \                                 In  segment XDATA_Z, align 1, keep-with-next
    167          devStates_t SampleApp_NwkState;
   \                     SampleApp_NwkState:
   \   000000                DS 1
   \   000001                REQUIRE __INIT_XDATA_Z
    168          

   \                                 In  segment XDATA_Z, align 1, keep-with-next
    169          uint8 SampleApp_TransID;  // This is the unique message ID (counter)
   \                     SampleApp_TransID:
   \   000000                DS 1
   \   000001                REQUIRE __INIT_XDATA_Z
    170          

   \                                 In  segment XDATA_Z, align 1, keep-with-next
    171          afAddrType_t SampleApp_Periodic_DstAddr; //广播
   \                     SampleApp_Periodic_DstAddr:
   \   000000                DS 12
   \   00000C                REQUIRE __INIT_XDATA_Z

   \                                 In  segment XDATA_Z, align 1, keep-with-next
    172          afAddrType_t SampleApp_Flash_DstAddr;    //组播
   \                     SampleApp_Flash_DstAddr:
   \   000000                DS 12
   \   00000C                REQUIRE __INIT_XDATA_Z

   \                                 In  segment XDATA_Z, align 1, keep-with-next
    173          afAddrType_t SampleApp_P2P_DstAddr;      //点播
   \                     SampleApp_P2P_DstAddr:
   \   000000                DS 12
   \   00000C                REQUIRE __INIT_XDATA_Z
    174          

   \                                 In  segment XDATA_Z, align 1, keep-with-next
    175          aps_Group_t SampleApp_Group;
   \                     SampleApp_Group:
   \   000000                DS 18
   \   000012                REQUIRE __INIT_XDATA_Z
    176          

   \                                 In  segment XDATA_Z, align 1, keep-with-next
    177          uint8 SampleAppPeriodicCounter = 0;
   \                     SampleAppPeriodicCounter:
   \   000000                DS 1
   \   000001                REQUIRE __INIT_XDATA_Z

   \                                 In  segment XDATA_Z, align 1, keep-with-next
    178          uint8 SampleAppFlashCounter = 0;
   \                     SampleAppFlashCounter:
   \   000000                DS 1
   \   000001                REQUIRE __INIT_XDATA_Z
    179          
    180          /*********************************************************************
    181           * LOCAL FUNCTIONS
    182           */
    183          void SampleApp_HandleKeys( uint8 shift, uint8 keys );
    184          void SampleApp_MessageMSGCB( afIncomingMSGPacket_t *pckt );
    185          void SampleApp_SendPeriodicMessage( void );
    186          void SampleApp_SendFlashMessage( uint16 flashTime );
    187          void SampleApp_Send_P2P_Message(void);
    188          uint16 ReadGasData(void);
    189          void ReSetWifi(void);
    190          void USART_Receive_messege(mtOSALSerialData_t *MSGpkt);
    191          void publish_msg(afIncomingMSGPacket_t *pkt);
    192          void sub_msg(void);
    193          void send_onenet(afIncomingMSGPacket_t *pkt);
    194          unsigned int HX711_Read(void);
    195          int get_data(const char* data_name,char* recv,int recv_len);
    196          void LCD_CLS(void);
    197          void Get_Maopi(void);
    198          long Get_Weight(void);
    199          /*********************************************************************
    200           * NETWORK LAYER CALLBACKS
    201           */
    202          
    203          /*********************************************************************
    204           * PUBLIC FUNCTIONS
    205           */
    206          
    207          /*********************************************************************
    208           * @fn      SampleApp_Init
    209           *
    210           * @brief   Initialization function for the Generic App Task.
    211           *          This is called during initialization and should contain
    212           *          any application specific initialization (ie. hardware
    213           *          initialization/setup, table initialization, power up
    214           *          notificaiton ... ).
    215           *
    216           * @param   task_id - the ID assigned by OSAL.  This ID should be
    217           *                    used to send messages and set timers.
    218           *
    219           * @return  none
    220           */

   \                                 In  segment BANKED_CODE, align 1, keep-with-next
    221          void SampleApp_Init( uint8 task_id )
   \                     SampleApp_Init:
    222          { 
   \   000000   74F5         MOV     A,#-0xb
   \   000002   12....       LCALL   ?BANKED_ENTER_XDATA
   \   000005                ; Saved register size: 11
   \   000005                ; Auto size: 0
   \   000005   E9           MOV     A,R1
   \   000006   FE           MOV     R6,A
    223            unsigned char tmp[10];
                                 ^
Warning[Pe550]: variable "tmp" was set but never used
    224            SampleApp_TaskID = task_id;
   \   000007   90....       MOV     DPTR,#SampleApp_TaskID
   \   00000A   F0           MOVX    @DPTR,A
    225            SampleApp_NwkState = DEV_INIT;
   \   00000B   90....       MOV     DPTR,#SampleApp_NwkState
   \   00000E   7401         MOV     A,#0x1
   \   000010   F0           MOVX    @DPTR,A
    226            SampleApp_TransID = 0;
   \   000011   90....       MOV     DPTR,#SampleApp_TransID
   \   000014   E4           CLR     A
   \   000015   F0           MOVX    @DPTR,A
    227            // LCD_CLS();
    228            //LCD_welcome();
    229            MT_UartInit();                  //串口初始化
   \   000016                ; Setup parameters for call to function MT_UartInit
   \   000016   12....       LCALL   ??MT_UartInit?relay
    230            MT_UartRegisterTaskID(task_id); //注册串口任务
   \   000019                ; Setup parameters for call to function MT_UartRegisterTaskID
   \   000019   EE           MOV     A,R6
   \   00001A   F9           MOV     R1,A
   \   00001B   12....       LCALL   ??MT_UartRegisterTaskID?relay
    231             HalUARTWrite(0,"success\n", 9);
   \   00001E                ; Setup parameters for call to function HalUARTWrite
   \   00001E   7C09         MOV     R4,#0x9
   \   000020   7D00         MOV     R5,#0x0
   \   000022   7A..         MOV     R2,#`?<Constant "success\\n">` & 0xff
   \   000024   7B..         MOV     R3,#(`?<Constant "success\\n">` >> 8) & 0xff
   \   000026   7900         MOV     R1,#0x0
   \   000028   12....       LCALL   ??HalUARTWrite?relay
    232             //HalUARTWrite(1,"success2\n", 9);
    233            //HalLcdInit();
    234            
    235           
    236          
    237             tmp[0] = HAL_UART_DMA+0x30;
    238            tmp[1] = HAL_UART_ISR+0x30;
    239            tmp[2] = HAL_UART_USB+0x30;
    240              //HalUARTWrite(0, "start_time", strlen("start_time"));
    241             // HalUARTWrite(0, "\0", 1);
    242             P0SEL &= 0x7c;           //P0_7配置成通用io 温湿度   
   \   00002B   53F37C       ANL     0xf3,#0x7c
    243              P0DIR |=0x01;  //P0_0为输出
   \   00002E   43FD01       ORL     0xfd,#0x1
    244             //  P0DIR |=0x02;  //P0_1为输出
    245             P0DIR &=0xfd; //P0_1为输入
   \   000031   53FDFD       ANL     0xfd,#0xfd
    246          
    247              // ds1302_init();
    248              // ds1302_write_time();
    249             ReSetWifi();
   \   000034                ; Setup parameters for call to function ReSetWifi
   \   000034   12....       LCALL   ?Subroutine8 & 0xFFFF
    250             Delay_ms(1000);                //等待模块启动
    251             HalUARTWrite(1,"AT\r\n",strlen("AT\r\n")); //发送AT检测WiFi模块
    252              flat = 1;
    253              Get_Maopi();
   \                     ??CrossCallReturnLabel_9:
   \   000037                ; Setup parameters for call to function HX711_Read
   \   000037   12....       LCALL   ?Subroutine6 & 0xFFFF
    254              //char buf_maopi[20];
    255              
    256              //sprintf((char *)buf_maopi,"{Weight_Maopi:%ld,}",Weight_Maopi);
    257             //HalUARTWrite(0,buf_maopi, strlen(buf_maopi));  
    258           
    259            // Device hardware initialization can be added here or in main() (Zmain.c).
    260            // If the hardware is application specific - add it here.
    261            // If the hardware is other parts of the device add it in main().
    262          
    263           #if defined ( BUILD_ALL_DEVICES )
    264            // The "Demo" target is setup to have BUILD_ALL_DEVICES and HOLD_AUTO_START
    265            // We are looking at a jumper (defined in SampleAppHw.c) to be jumpered
    266            // together - if they are - we will start up a coordinator. Otherwise,
    267            // the device will start as a router.
    268            if ( readCoordinatorJumper() )
    269              zgDeviceLogicalType = ZG_DEVICETYPE_COORDINATOR;
    270            else
    271              zgDeviceLogicalType = ZG_DEVICETYPE_ROUTER;
    272          #endif // BUILD_ALL_DEVICES
    273          
    274          #if defined ( HOLD_AUTO_START )
    275            // HOLD_AUTO_START is a compile option that will surpress ZDApp
    276            //  from starting the device and wait for the application to
    277            //  start the device.
    278            ZDOInitDevice(0);
    279          #endif
    280          
    281            // Setup for the periodic message's destination address
    282            // Broadcast to everyone
    283            SampleApp_Periodic_DstAddr.addrMode = (afAddrMode_t)AddrBroadcast;
   \                     ??CrossCallReturnLabel_57:
   \   00003A   90....       MOV     DPTR,#SampleApp_Periodic_DstAddr + 8
   \   00003D   740F         MOV     A,#0xf
   \   00003F   F0           MOVX    @DPTR,A
    284            SampleApp_Periodic_DstAddr.endPoint = SAMPLEAPP_ENDPOINT;
   \   000040   A3           INC     DPTR
   \   000041   7414         MOV     A,#0x14
   \   000043   F0           MOVX    @DPTR,A
    285            SampleApp_Periodic_DstAddr.addr.shortAddr = 0xFFFF;
   \   000044   90....       MOV     DPTR,#SampleApp_Periodic_DstAddr
   \   000047   74FF         MOV     A,#-0x1
   \   000049   F0           MOVX    @DPTR,A
   \   00004A   A3           INC     DPTR
   \   00004B   F0           MOVX    @DPTR,A
    286          
    287            // Setup for the flash command's destination address - Group 1
    288            SampleApp_Flash_DstAddr.addrMode = (afAddrMode_t)afAddrGroup;
   \   00004C   90....       MOV     DPTR,#SampleApp_Flash_DstAddr + 8
   \   00004F   7401         MOV     A,#0x1
   \   000051   F0           MOVX    @DPTR,A
    289            SampleApp_Flash_DstAddr.endPoint = SAMPLEAPP_ENDPOINT;
   \   000052   A3           INC     DPTR
   \   000053   7414         MOV     A,#0x14
   \   000055   F0           MOVX    @DPTR,A
    290            SampleApp_Flash_DstAddr.addr.shortAddr = SAMPLEAPP_FLASH_GROUP;
   \   000056   90....       MOV     DPTR,#SampleApp_Flash_DstAddr
   \   000059   7401         MOV     A,#0x1
   \   00005B   F0           MOVX    @DPTR,A
   \   00005C   A3           INC     DPTR
   \   00005D   E4           CLR     A
   \   00005E   F0           MOVX    @DPTR,A
    291            
    292            SampleApp_P2P_DstAddr.addrMode = (afAddrMode_t)Addr16Bit; //点播 
   \   00005F   90....       MOV     DPTR,#SampleApp_P2P_DstAddr + 8
   \   000062   7402         MOV     A,#0x2
   \   000064   F0           MOVX    @DPTR,A
    293            SampleApp_P2P_DstAddr.endPoint = SAMPLEAPP_ENDPOINT; 
   \   000065   A3           INC     DPTR
   \   000066   7414         MOV     A,#0x14
   \   000068   F0           MOVX    @DPTR,A
    294            SampleApp_P2P_DstAddr.addr.shortAddr = 0x0000;            //发给协调器
   \   000069   90....       MOV     DPTR,#SampleApp_P2P_DstAddr
   \   00006C   E4           CLR     A
   \   00006D   F0           MOVX    @DPTR,A
   \   00006E   A3           INC     DPTR
   \   00006F   F0           MOVX    @DPTR,A
    295          
    296            // Fill out the endpoint description.
    297            SampleApp_epDesc.endPoint = SAMPLEAPP_ENDPOINT;
   \   000070   90....       MOV     DPTR,#SampleApp_epDesc
   \   000073   7414         MOV     A,#0x14
   \   000075   F0           MOVX    @DPTR,A
    298            SampleApp_epDesc.task_id = &SampleApp_TaskID;
   \   000076   A3           INC     DPTR
   \   000077   74..         MOV     A,#SampleApp_TaskID & 0xff
   \   000079   F0           MOVX    @DPTR,A
   \   00007A   A3           INC     DPTR
   \   00007B   74..         MOV     A,#(SampleApp_TaskID >> 8) & 0xff
   \   00007D   F0           MOVX    @DPTR,A
    299            SampleApp_epDesc.simpleDesc
    300                      = (SimpleDescriptionFormat_t *)&SampleApp_SimpleDesc;
   \   00007E   A3           INC     DPTR
   \   00007F   74..         MOV     A,#SampleApp_SimpleDesc & 0xff
   \   000081   F0           MOVX    @DPTR,A
   \   000082   A3           INC     DPTR
   \   000083   74..         MOV     A,#(SampleApp_SimpleDesc >> 8) & 0xff
   \   000085   F0           MOVX    @DPTR,A
    301            SampleApp_epDesc.latencyReq = noLatencyReqs;
   \   000086   A3           INC     DPTR
   \   000087   E4           CLR     A
   \   000088   F0           MOVX    @DPTR,A
    302          
    303            // Register the endpoint description with the AF
    304            afRegister( &SampleApp_epDesc );
   \   000089                ; Setup parameters for call to function afRegister
   \   000089   7A..         MOV     R2,#SampleApp_epDesc & 0xff
   \   00008B   7B..         MOV     R3,#(SampleApp_epDesc >> 8) & 0xff
   \   00008D   12....       LCALL   ??afRegister?relay
    305          
    306            // Register for all key events - This app will handle all key events
    307            RegisterForKeys( SampleApp_TaskID );
   \   000090                ; Setup parameters for call to function RegisterForKeys
   \   000090   90....       MOV     DPTR,#SampleApp_TaskID
   \   000093   E0           MOVX    A,@DPTR
   \   000094   F9           MOV     R1,A
   \   000095   12....       LCALL   ??RegisterForKeys?relay
    308          
    309            // By default, all devices start out in Group 1
    310            SampleApp_Group.ID = 0x0001;
   \   000098   90....       MOV     DPTR,#SampleApp_Group
   \   00009B   7401         MOV     A,#0x1
   \   00009D   F0           MOVX    @DPTR,A
   \   00009E   A3           INC     DPTR
   \   00009F   E4           CLR     A
   \   0000A0   F0           MOVX    @DPTR,A
    311            osal_memcpy( SampleApp_Group.name, "Group 1", 7 );
   \   0000A1                ; Setup parameters for call to function osal_memcpy
   \   0000A1   75....       MOV     ?V0 + 0,#`?<Constant "Group 1">` & 0xff
   \   0000A4   75....       MOV     ?V0 + 1,#(`?<Constant "Group 1">` >> 8) & 0xff
   \   0000A7   F5..         MOV     ?V0 + 2,A
   \   0000A9   78..         MOV     R0,#?V0 + 0
   \   0000AB   12....       LCALL   ?PUSH_XSTACK_I_THREE
   \   0000AE   7C07         MOV     R4,#0x7
   \   0000B0   7D00         MOV     R5,#0x0
   \   0000B2   7A..         MOV     R2,#(SampleApp_Group + 2) & 0xff
   \   0000B4   7B..         MOV     R3,#((SampleApp_Group + 2) >> 8) & 0xff
   \   0000B6   12....       LCALL   ??osal_memcpy?relay
   \   0000B9   7403         MOV     A,#0x3
   \   0000BB   12....       LCALL   ?DEALLOC_XSTACK8
    312            aps_AddGroup( SAMPLEAPP_ENDPOINT, &SampleApp_Group );
   \   0000BE                ; Setup parameters for call to function aps_AddGroup
   \   0000BE   7A..         MOV     R2,#SampleApp_Group & 0xff
   \   0000C0   7B..         MOV     R3,#(SampleApp_Group >> 8) & 0xff
   \   0000C2   7914         MOV     R1,#0x14
   \   0000C4   12....       LCALL   ??aps_AddGroup?relay
    313           
    314          
    315          }
   \   0000C7   7F03         MOV     R7,#0x3
   \   0000C9   02....       LJMP    ?BANKED_LEAVE_XDATA
   \   0000CC                REQUIRE P0SEL
   \   0000CC                REQUIRE P0DIR

   \                                 In  segment BANKED_CODE, align 1, keep-with-next
   \                     ?Subroutine8:
   \   000000   12....       LCALL   ??ReSetWifi?relay
   \   000003                ; Setup parameters for call to function Delay_ms
   \   000003                ; Setup parameters for call to function Delay_ms
   \   000003   7AE8         MOV     R2,#-0x18
   \   000005   7B03         MOV     R3,#0x3
   \   000007   12....       LCALL   ??Delay_ms?relay
   \   00000A                ; Setup parameters for call to function HalUARTWrite
   \   00000A                ; Setup parameters for call to function HalUARTWrite
   \   00000A   7C04         MOV     R4,#0x4
   \   00000C   7D00         MOV     R5,#0x0
   \   00000E   7A..         MOV     R2,#`?<Constant "AT\\r\\n">` & 0xff
   \   000010   7B..         MOV     R3,#(`?<Constant "AT\\r\\n">` >> 8) & 0xff
   \   000012   7901         MOV     R1,#0x1
   \   000014   12....       LCALL   ??HalUARTWrite?relay
   \   000017   90....       MOV     DPTR,#flat
   \   00001A   7401         MOV     A,#0x1
   \   00001C   F0           MOVX    @DPTR,A
   \   00001D   22           RET
    316          
    317          /*********************************************************************
    318           * @fn      SampleApp_ProcessEvent
    319           *
    320           * @brief   Generic Application Task event processor.  This function
    321           *          is called to process all events for the task.  Events
    322           *          include timers, messages and any other user defined events.
    323           *
    324           * @param   task_id  - The OSAL assigned task ID.
    325           * @param   events - events to process.  This is a bit map and can
    326           *                   contain more than one event.
    327           *
    328           * @return  none
    329           */

   \                                 In  segment BANKED_CODE, align 1, keep-with-next
    330          uint16 SampleApp_ProcessEvent( uint8 task_id, uint16 events )
   \                     SampleApp_ProcessEvent:
    331          {
   \   000000   74F4         MOV     A,#-0xc
   \   000002   12....       LCALL   ?BANKED_ENTER_XDATA
   \   000005                ; Saved register size: 12
   \   000005                ; Auto size: 0
   \   000005   EA           MOV     A,R2
   \   000006   FE           MOV     R6,A
   \   000007   EB           MOV     A,R3
   \   000008   FF           MOV     R7,A
    332            afIncomingMSGPacket_t *MSGpkt;
    333            (void)task_id;  // Intentionally unreferenced parameter
    334            
    335            
    336            if ( events & SYS_EVENT_MSG )
   \   000009   5480         ANL     A,#0x80
   \   00000B   7003         JNZ     $+5
   \   00000D   02....       LJMP    ??SampleApp_ProcessEvent_0 & 0xFFFF
    337            {
    338              MSGpkt = (afIncomingMSGPacket_t *)osal_msg_receive( SampleApp_TaskID );
   \   000010                ; Setup parameters for call to function osal_msg_receive
   \   000010   8026         SJMP    ??SampleApp_ProcessEvent_1
    339              while ( MSGpkt )
    340              {
    341                switch ( MSGpkt->hdr.event )
    342                {
    343                  // Received when a key is pressed
    344                  case KEY_CHANGE:
    345                    SampleApp_HandleKeys( ((keyChange_t *)MSGpkt)->state, ((keyChange_t *)MSGpkt)->keys );
    346                    break;
    347          
    348                  // Received when a messages is received (OTA) for this endpoint
    349                  case AF_INCOMING_MSG_CMD:
    350                    SampleApp_MessageMSGCB( MSGpkt );
    351                    break;
    352                  case CMD_SERIAL_MSG:
    353                        USART_Receive_messege((mtOSALSerialData_t *)MSGpkt);
    354                         //HalUARTWrite(1,"ATOK",strlen("ATOK"));
    355                        break;
    356                  
    357          
    358                  // Received whenever the device changes state in the network
    359                  case ZDO_STATE_CHANGE:
    360                    SampleApp_NwkState = (devStates_t)(MSGpkt->hdr.status);
   \                     ??SampleApp_ProcessEvent_2:
   \   000012   A3           INC     DPTR
   \   000013   E0           MOVX    A,@DPTR
   \   000014   90....       MOV     DPTR,#SampleApp_NwkState
   \   000017   F0           MOVX    @DPTR,A
    361                    if ( //(SampleApp_NwkState == DEV_ZB_COORD) ||
    362                           (SampleApp_NwkState == DEV_ROUTER)
    363                        || (SampleApp_NwkState == DEV_END_DEVICE) )
   \   000018   6407         XRL     A,#0x7
   \   00001A   6005         JZ      ??SampleApp_ProcessEvent_3
   \   00001C   E0           MOVX    A,@DPTR
   \   00001D   6406         XRL     A,#0x6
   \   00001F   7010         JNZ     ??SampleApp_ProcessEvent_4
    364                    {
    365                      // Start sending the periodic message in a regular interval.
    366                      osal_start_timerEx( SampleApp_TaskID,
    367                                        SAMPLEAPP_SEND_PERIODIC_MSG_EVT,
    368                                        SAMPLEAPP_SEND_PERIODIC_MSG_TIMEOUT );
   \                     ??SampleApp_ProcessEvent_3:
   \   000021                ; Setup parameters for call to function osal_start_timerEx
   \   000021   7CE8         MOV     R4,#-0x18
   \   000023   7D03         MOV     R5,#0x3
   \   000025   7A01         MOV     R2,#0x1
   \   000027   7B00         MOV     R3,#0x0
   \   000029   90....       MOV     DPTR,#SampleApp_TaskID
   \   00002C   E0           MOVX    A,@DPTR
   \   00002D   F9           MOV     R1,A
   \   00002E   12....       LCALL   ??osal_start_timerEx?relay
    369                    }
    370                    else
    371                    {
    372                      // Device is no longer in the network
    373                    }
    374                    break;
    375          
    376                  default:
    377                    break;
    378                }
    379          
    380                // Release the memory
    381                osal_msg_deallocate( (uint8 *)MSGpkt );
   \                     ??SampleApp_ProcessEvent_4:
   \   000031                ; Setup parameters for call to function osal_msg_deallocate
   \   000031   AA..         MOV     R2,?V0 + 0
   \   000033   AB..         MOV     R3,?V0 + 1
   \   000035   12....       LCALL   ??osal_msg_deallocate?relay
    382          
    383                // Next - if one is available
    384                MSGpkt = (afIncomingMSGPacket_t *)osal_msg_receive( SampleApp_TaskID );
   \   000038                ; Setup parameters for call to function osal_msg_receive
   \                     ??SampleApp_ProcessEvent_1:
   \   000038   90....       MOV     DPTR,#SampleApp_TaskID
   \   00003B   E0           MOVX    A,@DPTR
   \   00003C   F9           MOV     R1,A
   \   00003D   12....       LCALL   ??osal_msg_receive?relay
   \   000040   8A..         MOV     ?V0 + 0,R2
   \   000042   8B..         MOV     ?V0 + 1,R3
   \   000044   E5..         MOV     A,?V0 + 0
   \   000046   45..         ORL     A,?V0 + 1
   \   000048   603E         JZ      ??SampleApp_ProcessEvent_5
   \   00004A   85..82       MOV     DPL,?V0 + 0
   \   00004D   85..83       MOV     DPH,?V0 + 1
   \   000050   E0           MOVX    A,@DPTR
   \   000051   14           DEC     A
   \   000052   602B         JZ      ??SampleApp_ProcessEvent_6
   \   000054   24E7         ADD     A,#-0x19
   \   000056   601E         JZ      ??SampleApp_ProcessEvent_7
   \   000058   245A         ADD     A,#0x5a
   \   00005A   6006         JZ      ??SampleApp_ProcessEvent_8
   \   00005C   24EF         ADD     A,#-0x11
   \   00005E   60B2         JZ      ??SampleApp_ProcessEvent_2
   \   000060   80CF         SJMP    ??SampleApp_ProcessEvent_4
   \                     ??SampleApp_ProcessEvent_8:
   \   000062                ; Setup parameters for call to function SampleApp_HandleKeys
   \   000062   A3           INC     DPTR
   \   000063   A3           INC     DPTR
   \   000064   A3           INC     DPTR
   \   000065   E0           MOVX    A,@DPTR
   \   000066   FA           MOV     R2,A
   \   000067   85..82       MOV     DPL,?V0 + 0
   \   00006A   85..83       MOV     DPH,?V0 + 1
   \   00006D   A3           INC     DPTR
   \   00006E   A3           INC     DPTR
   \   00006F   E0           MOVX    A,@DPTR
   \   000070   F9           MOV     R1,A
   \   000071   12....       LCALL   ??SampleApp_HandleKeys?relay
   \   000074   80BB         SJMP    ??SampleApp_ProcessEvent_4
   \                     ??SampleApp_ProcessEvent_7:
   \   000076                ; Setup parameters for call to function SampleApp_MessageMSGCB
   \   000076   AA..         MOV     R2,?V0 + 0
   \   000078   AB..         MOV     R3,?V0 + 1
   \   00007A   12....       LCALL   ??SampleApp_MessageMSGCB?relay
   \   00007D   80B2         SJMP    ??SampleApp_ProcessEvent_4
   \                     ??SampleApp_ProcessEvent_6:
   \   00007F                ; Setup parameters for call to function USART_Receive_messege
   \   00007F   AA..         MOV     R2,?V0 + 0
   \   000081   AB..         MOV     R3,?V0 + 1
   \   000083   12....       LCALL   ??USART_Receive_messege?relay
   \   000086   80A9         SJMP    ??SampleApp_ProcessEvent_4
    385              }
    386          
    387              // return unprocessed events
    388              return (events ^ SYS_EVENT_MSG);
   \                     ??SampleApp_ProcessEvent_5:
   \   000088   EE           MOV     A,R6
   \   000089   FA           MOV     R2,A
   \   00008A   EF           MOV     A,R7
   \   00008B   6480         XRL     A,#0x80
   \                     ??SampleApp_ProcessEvent_9:
   \   00008D   FB           MOV     R3,A
   \   00008E   802A         SJMP    ??SampleApp_ProcessEvent_10
    389            }
    390          
    391            // Send a message out - This event is generated by a timer
    392            //  (setup in SampleApp_Init()).
    393            if ( events & SAMPLEAPP_SEND_PERIODIC_MSG_EVT )
   \                     ??SampleApp_ProcessEvent_0:
   \   000090   EE           MOV     A,R6
   \   000091   A2E0         MOV     C,0xE0 /* A   */.0
   \   000093   5021         JNC     ??SampleApp_ProcessEvent_11
    394            {
    395              // Send the periodic message
    396              //SampleApp_SendPeriodicMessage();
    397              SampleApp_Send_P2P_Message();
   \   000095                ; Setup parameters for call to function SampleApp_Send_P2P_Message
   \   000095   12....       LCALL   ??SampleApp_Send_P2P_Message?relay
    398              //ds1302_read_time();
    399            //  HalUARTWrite(0,time_buf,8);
    400              //HalLcdWriteString(dis_time_buf,HAL_LCD_LINE_1);
    401             // sprintf(time_buf,"time:%d",count++);
    402               //HalLcdWriteString(time_buf,HAL_LCD_LINE_2);
    403             // hour=dis_time_buf[8]*10+dis_time_buf[9];
    404             // minute=dis_time_buf[10]*10+dis_time_buf[11];
    405              
    406             // if(hour==Sethour && minute==Setmiunte){
    407             //   if(food_flag==0){
    408             //       HalUARTWrite(0,"{ADD}",strlen("{ADD}"));
    409             //       HalUARTWrite(0,"\0",1);
    410             //       food_flag=60;
    411             //   }
    412             //    else food_flag--;               
    413                   
    414            //  }
    415            // HalLcdWriteString(dis_time_buf,HAL_LCD_LINE_1);
    416              // Setup to send message again in normal period (+ a little jitter)
    417              osal_start_timerEx( SampleApp_TaskID, SAMPLEAPP_SEND_PERIODIC_MSG_EVT,
    418                  (SAMPLEAPP_SEND_PERIODIC_MSG_TIMEOUT+(osal_rand() & 0x00FF)));
   \   000098                ; Setup parameters for call to function osal_rand
   \   000098   12....       LCALL   ??osal_rand?relay
   \   00009B                ; Setup parameters for call to function osal_start_timerEx
   \   00009B   EA           MOV     A,R2
   \   00009C   24E8         ADD     A,#-0x18
   \   00009E   FC           MOV     R4,A
   \   00009F   E4           CLR     A
   \   0000A0   3403         ADDC    A,#0x3
   \   0000A2   FD           MOV     R5,A
   \   0000A3   7A01         MOV     R2,#0x1
   \   0000A5   7B00         MOV     R3,#0x0
   \   0000A7   90....       MOV     DPTR,#SampleApp_TaskID
   \   0000AA   E0           MOVX    A,@DPTR
   \   0000AB   F9           MOV     R1,A
   \   0000AC   12....       LCALL   ??osal_start_timerEx?relay
    419             // osal_start_timerEx( SampleApp_TaskID, SAMPLEAPP_SEND_PERIODIC_MSG_EVT,
    420              //    SAMPLEAPP_SEND_PERIODIC_MSG_TIMEOUT);
    421          
    422              // return unprocessed events
    423              return (events ^ SAMPLEAPP_SEND_PERIODIC_MSG_EVT);
   \   0000AF   EE           MOV     A,R6
   \   0000B0   6401         XRL     A,#0x1
   \   0000B2   FA           MOV     R2,A
   \   0000B3   EF           MOV     A,R7
   \   0000B4   80D7         SJMP    ??SampleApp_ProcessEvent_9
    424            }
    425          
    426            // Discard unknown events
    427            return 0;
   \                     ??SampleApp_ProcessEvent_11:
   \   0000B6   7A00         MOV     R2,#0x0
   \   0000B8   7B00         MOV     R3,#0x0
   \                     ??SampleApp_ProcessEvent_10:
   \   0000BA                REQUIRE ?Subroutine0
   \   0000BA                ; // Fall through to label ?Subroutine0
    428          }

   \                                 In  segment BANKED_CODE, align 1, keep-with-next
   \                     ?Subroutine0:
   \   000000   7F04         MOV     R7,#0x4
   \   000002   02....       LJMP    ?BANKED_LEAVE_XDATA
    429          
    430          /*********************************************************************
    431           * Event Generation Functions
    432           */
    433          /*********************************************************************
    434           * @fn      SampleApp_HandleKeys
    435           *
    436           * @brief   Handles all key events for this device.
    437           *
    438           * @param   shift - true if in shift/alt.
    439           * @param   keys - bit field for key events. Valid entries:
    440           *                 HAL_KEY_SW_2
    441           *                 HAL_KEY_SW_1
    442           *
    443           * @return  none
    444           */

   \                                 In  segment BANKED_CODE, align 1, keep-with-next
    445          void SampleApp_HandleKeys( uint8 shift, uint8 keys )
   \                     SampleApp_HandleKeys:
    446          {
   \   000000   74F6         MOV     A,#-0xa
   \   000002   12....       LCALL   ?BANKED_ENTER_XDATA
   \   000005                ; Saved register size: 10
   \   000005                ; Auto size: 0
   \   000005   EA           MOV     A,R2
   \   000006   FE           MOV     R6,A
    447            (void)shift;  // Intentionally unreferenced parameter
    448            
    449            if ( keys & HAL_KEY_SW_1 )
   \   000007   A2E0         MOV     C,0xE0 /* A   */.0
   \   000009   5007         JNC     ??SampleApp_HandleKeys_0
    450            {
    451              /* This key sends the Flash Command is sent to Group 1.
    452               * This device will not receive the Flash Command from this
    453               * device (even if it belongs to group 1).
    454               */
    455              SampleApp_SendFlashMessage( SAMPLEAPP_FLASH_DURATION );
   \   00000B                ; Setup parameters for call to function SampleApp_SendFlashMessage
   \   00000B   7AE8         MOV     R2,#-0x18
   \   00000D   7B03         MOV     R3,#0x3
   \   00000F   12....       LCALL   ??SampleApp_SendFlashMessage?relay
    456            }
    457          
    458            if ( keys & HAL_KEY_SW_2 )
   \                     ??SampleApp_HandleKeys_0:
   \   000012   EE           MOV     A,R6
   \   000013   A2E1         MOV     C,0xE0 /* A   */.1
   \   000015   5024         JNC     ??SampleApp_HandleKeys_1
    459            {
    460              /* The Flashr Command is sent to Group 1.
    461               * This key toggles this device in and out of group 1.
    462               * If this device doesn't belong to group 1, this application
    463               * will not receive the Flash command sent to group 1.
    464               */
    465              aps_Group_t *grp;
    466              grp = aps_FindGroup( SAMPLEAPP_ENDPOINT, SAMPLEAPP_FLASH_GROUP );
    467              if ( grp )
   \   000017                ; Setup parameters for call to function aps_FindGroup
   \   000017   7A01         MOV     R2,#0x1
   \   000019   7B00         MOV     R3,#0x0
   \   00001B   7914         MOV     R1,#0x14
   \   00001D   12....       LCALL   ??aps_FindGroup?relay
   \   000020   8B..         MOV     ?V0 + 1,R3
   \   000022   EA           MOV     A,R2
   \   000023   45..         ORL     A,?V0 + 1
   \   000025   600B         JZ      ??SampleApp_HandleKeys_2
    468              {
    469                // Remove from the group
    470                aps_RemoveGroup( SAMPLEAPP_ENDPOINT, SAMPLEAPP_FLASH_GROUP );
   \   000027                ; Setup parameters for call to function aps_RemoveGroup
   \   000027   7A01         MOV     R2,#0x1
   \   000029   7B00         MOV     R3,#0x0
   \   00002B   7914         MOV     R1,#0x14
   \   00002D   12....       LCALL   ??aps_RemoveGroup?relay
   \   000030   8009         SJMP    ??SampleApp_HandleKeys_1
    471              }
    472              else
    473              {
    474                // Add to the flash group
    475                aps_AddGroup( SAMPLEAPP_ENDPOINT, &SampleApp_Group );
   \                     ??SampleApp_HandleKeys_2:
   \   000032                ; Setup parameters for call to function aps_AddGroup
   \   000032   7A..         MOV     R2,#SampleApp_Group & 0xff
   \   000034   7B..         MOV     R3,#(SampleApp_Group >> 8) & 0xff
   \   000036   7914         MOV     R1,#0x14
   \   000038   12....       LCALL   ??aps_AddGroup?relay
    476              }
    477            }
    478          }
   \                     ??SampleApp_HandleKeys_1:
   \   00003B   02....       LJMP    ??Subroutine26_0 & 0xFFFF

   \                                 In  segment BANKED_CODE, align 1, keep-with-next
   \                     ??Subroutine26_0:
   \   000000   7F02         MOV     R7,#0x2
   \   000002   02....       LJMP    ?BANKED_LEAVE_XDATA
    479          //上传数据点

   \                                 In  segment BANKED_CODE, align 1, keep-with-next
    480          void send_onenet(afIncomingMSGPacket_t *pkt){
   \                     send_onenet:
   \   000000   74F6         MOV     A,#-0xa
   \   000002   12....       LCALL   ?BANKED_ENTER_XDATA
   \   000005                ; Saved register size: 10
   \   000005                ; Auto size: 64
   \   000005   74C0         MOV     A,#-0x40
   \   000007   12....       LCALL   ?ALLOC_XSTACK8
   \   00000A   EA           MOV     A,R2
   \   00000B   FE           MOV     R6,A
   \   00000C   EB           MOV     A,R3
   \   00000D   FF           MOV     R7,A
    481            unsigned char send_buf[64];
    482             memset(send_buf,0,64);
   \   00000E                ; Setup parameters for call to function memset
   \   00000E   75..40       MOV     ?V0 + 0,#0x40
   \   000011   75..00       MOV     ?V0 + 1,#0x0
   \   000014   78..         MOV     R0,#?V0 + 0
   \   000016   12....       LCALL   ?PUSH_XSTACK_I_TWO
   \   000019   7C00         MOV     R4,#0x0
   \   00001B   7D00         MOV     R5,#0x0
   \   00001D   7402         MOV     A,#0x2
   \   00001F   12....       LCALL   ?XSTACK_DISP0_8
   \   000022   12....       LCALL   ?Subroutine12 & 0xFFFF
   \                     ??CrossCallReturnLabel_21:
   \   000025   12....       LCALL   ?DEALLOC_XSTACK8
    483            //组包
    484              send_buf[0]=0x30;
   \   000028   12....       LCALL   ?Subroutine4 & 0xFFFF
    485              send_buf[1]=pkt->cmd.DataLength+6;
   \                     ??CrossCallReturnLabel_3:
   \   00002B   2406         ADD     A,#0x6
   \   00002D   C0E0         PUSH    A
   \   00002F   7401         MOV     A,#0x1
   \   000031   12....       LCALL   ?XSTACK_DISP0_8
   \   000034   D0E0         POP     A
   \   000036   F0           MOVX    @DPTR,A
    486              send_buf[2]=0x00;
   \   000037   7402         MOV     A,#0x2
   \   000039   12....       LCALL   ?XSTACK_DISP0_8
   \   00003C   E4           CLR     A
   \   00003D   F0           MOVX    @DPTR,A
    487              send_buf[3]=0x03;
   \   00003E   7403         MOV     A,#0x3
   \   000040   12....       LCALL   ?XSTACK_DISP0_8
   \   000043   7403         MOV     A,#0x3
   \   000045   F0           MOVX    @DPTR,A
    488              send_buf[4]=0x24; 
   \   000046   04           INC     A
   \   000047   12....       LCALL   ?XSTACK_DISP0_8
   \   00004A   7424         MOV     A,#0x24
   \   00004C   F0           MOVX    @DPTR,A
    489              send_buf[5]=0x64;
   \   00004D   7405         MOV     A,#0x5
   \   00004F   12....       LCALL   ?XSTACK_DISP0_8
   \   000052   7464         MOV     A,#0x64
   \   000054   F0           MOVX    @DPTR,A
    490              send_buf[6]=0x70;
   \   000055   7406         MOV     A,#0x6
   \   000057   12....       LCALL   ?XSTACK_DISP0_8
   \   00005A   7470         MOV     A,#0x70
   \   00005C   F0           MOVX    @DPTR,A
    491              send_buf[7]=0x03;
   \   00005D   7407         MOV     A,#0x7
   \   00005F   12....       LCALL   ?XSTACK_DISP0_8
   \   000062   7403         MOV     A,#0x3
   \   000064   F0           MOVX    @DPTR,A
    492              send_buf[8]=0x00;
   \   000065   7408         MOV     A,#0x8
   \   000067   12....       LCALL   ?XSTACK_DISP0_8
   \   00006A   E4           CLR     A
   \   00006B   F0           MOVX    @DPTR,A
    493              send_buf[9]=pkt->cmd.DataLength-2;
   \   00006C   8882         MOV     DPL,R0
   \   00006E   8983         MOV     DPH,R1
   \   000070   E0           MOVX    A,@DPTR
   \   000071   24FE         ADD     A,#-0x2
   \   000073   C0E0         PUSH    A
   \   000075   7409         MOV     A,#0x9
   \   000077   12....       LCALL   ?XSTACK_DISP0_8
   \   00007A   D0E0         POP     A
   \   00007C   12....       LCALL   ?Subroutine5 & 0xFFFF
    494              strcpy(&send_buf[10],pkt->cmd.Data);
                            ^
Warning[Pe167]: argument of type "unsigned char *" is incompatible with
          parameter of type "char *"

      strcpy(&send_buf[10],pkt->cmd.Data);
                           ^
"C:\Users\86158\Desktop\8.气体传感器\ZStack-CC2530-2.3.0-1.4.0\Projects\zstack\Samples\SampleApp\Source\SampleApp.c",494  Warning[Pe167]: 
          argument of type "unsigned char *" is incompatible with parameter of
          type "char const *"
   \                     ??CrossCallReturnLabel_5:
   \   00007F   740A         MOV     A,#0xa
   \   000081   12....       LCALL   ?XSTACK_DISP0_8
   \   000084   12....       LCALL   ?Subroutine15 & 0xFFFF
    495              //发送
    496              HalUARTWrite(1, send_buf, pkt->cmd.DataLength+8);
   \                     ??CrossCallReturnLabel_34:
   \   000087   2408         ADD     A,#0x8
   \   000089   02....       LJMP    ?Subroutine1 & 0xFFFF
    497          
    498          }

   \                                 In  segment BANKED_CODE, align 1, keep-with-next
   \                     ?Subroutine15:
   \   000000   AA82         MOV     R2,DPL
   \   000002   AB83         MOV     R3,DPH
   \   000004   12....       LCALL   ??strcpy?relay
   \   000007                ; Setup parameters for call to function HalUARTWrite
   \   000007                ; Setup parameters for call to function HalUARTWrite
   \   000007   85..82       MOV     DPL,?V0 + 0
   \   00000A   85..83       MOV     DPH,?V0 + 1
   \   00000D   E0           MOVX    A,@DPTR
   \   00000E   22           RET

   \                                 In  segment BANKED_CODE, align 1, keep-with-next
   \                     ?Subroutine5:
   \   000000   F0           MOVX    @DPTR,A
   \   000001                ; Setup parameters for call to function strcpy
   \   000001                ; Setup parameters for call to function strcpy
   \   000001   EE           MOV     A,R6
   \   000002   2421         ADD     A,#0x21
   \   000004   F582         MOV     DPL,A
   \   000006   EF           MOV     A,R7
   \   000007   3400         ADDC    A,#0x0
   \   000009   F583         MOV     DPH,A
   \   00000B   E0           MOVX    A,@DPTR
   \   00000C   FC           MOV     R4,A
   \   00000D   A3           INC     DPTR
   \   00000E   E0           MOVX    A,@DPTR
   \   00000F   FD           MOV     R5,A
   \   000010   22           RET

   \                                 In  segment BANKED_CODE, align 1, keep-with-next
   \                     ?Subroutine4:
   \   000000   85..82       MOV     DPL,?XSP + 0
   \   000003   85..83       MOV     DPH,?XSP + 1
   \   000006   7430         MOV     A,#0x30
   \   000008   F0           MOVX    @DPTR,A
   \   000009   EE           MOV     A,R6
   \   00000A   241F         ADD     A,#0x1f
   \   00000C   F8           MOV     R0,A
   \   00000D   EF           MOV     A,R7
   \   00000E   3400         ADDC    A,#0x0
   \   000010   F9           MOV     R1,A
   \   000011   88..         MOV     ?V0 + 0,R0
   \   000013   89..         MOV     ?V0 + 1,R1
   \   000015   8882         MOV     DPL,R0
   \   000017   F583         MOV     DPH,A
   \   000019   E0           MOVX    A,@DPTR
   \   00001A   22           RET

   \                                 In  segment BANKED_CODE, align 1, keep-with-next
   \                     ?Subroutine12:
   \   000000   AA82         MOV     R2,DPL
   \   000002   AB83         MOV     R3,DPH
   \   000004   12....       LCALL   ??memset?relay
   \   000007   7402         MOV     A,#0x2
   \   000009   22           RET

   \                                 In  segment BANKED_CODE, align 1, keep-with-next
   \                     ?Subroutine1:
   \   000000   FC           MOV     R4,A
   \   000001   A3           INC     DPTR
   \   000002   E0           MOVX    A,@DPTR
   \   000003   3400         ADDC    A,#0x0
   \   000005                REQUIRE ??Subroutine24_0
   \   000005                ; // Fall through to label ??Subroutine24_0

   \                                 In  segment BANKED_CODE, align 1, keep-with-next
   \                     ??Subroutine24_0:
   \   000000   FD           MOV     R5,A
   \   000001   85..82       MOV     DPL,?XSP + 0
   \   000004   85..83       MOV     DPH,?XSP + 1
   \   000007   AA82         MOV     R2,DPL
   \   000009   AB83         MOV     R3,DPH
   \   00000B   7901         MOV     R1,#0x1
   \   00000D   12....       LCALL   ??HalUARTWrite?relay
   \   000010   7440         MOV     A,#0x40
   \   000012                REQUIRE ??Subroutine25_0
   \   000012                ; // Fall through to label ??Subroutine25_0

   \                                 In  segment BANKED_CODE, align 1, keep-with-next
   \                     ??Subroutine25_0:
   \   000000   12....       LCALL   ?DEALLOC_XSTACK8
   \   000003                REQUIRE ??Subroutine26_0
   \   000003                ; // Fall through to label ??Subroutine26_0
    499          
    500          
    501          //发布主题

   \                                 In  segment BANKED_CODE, align 1, keep-with-next
    502          void publish_msg(afIncomingMSGPacket_t *pkt){
   \                     publish_msg:
   \   000000   74F6         MOV     A,#-0xa
   \   000002   12....       LCALL   ?BANKED_ENTER_XDATA
   \   000005                ; Saved register size: 10
   \   000005                ; Auto size: 64
   \   000005   74C0         MOV     A,#-0x40
   \   000007   12....       LCALL   ?ALLOC_XSTACK8
   \   00000A   EA           MOV     A,R2
   \   00000B   FE           MOV     R6,A
   \   00000C   EB           MOV     A,R3
   \   00000D   FF           MOV     R7,A
    503            unsigned char pub_buf[64];
    504             memset(pub_buf,0,64);
   \   00000E                ; Setup parameters for call to function memset
   \   00000E   75..40       MOV     ?V0 + 0,#0x40
   \   000011   75..00       MOV     ?V0 + 1,#0x0
   \   000014   78..         MOV     R0,#?V0 + 0
   \   000016   12....       LCALL   ?PUSH_XSTACK_I_TWO
   \   000019   7C00         MOV     R4,#0x0
   \   00001B   7D00         MOV     R5,#0x0
   \   00001D   7402         MOV     A,#0x2
   \   00001F   12....       LCALL   ?XSTACK_DISP0_8
   \   000022   12....       LCALL   ?Subroutine12 & 0xFFFF
   \                     ??CrossCallReturnLabel_22:
   \   000025   12....       LCALL   ?DEALLOC_XSTACK8
    505            //组包
    506              pub_buf[0]=0x30;
   \   000028   12....       LCALL   ?Subroutine4 & 0xFFFF
    507              pub_buf[1]=pkt->cmd.DataLength+5;
   \                     ??CrossCallReturnLabel_4:
   \   00002B   2405         ADD     A,#0x5
   \   00002D   C0E0         PUSH    A
   \   00002F   7401         MOV     A,#0x1
   \   000031   12....       LCALL   ?XSTACK_DISP0_8
   \   000034   D0E0         POP     A
   \   000036   F0           MOVX    @DPTR,A
    508              pub_buf[2]=0x00;
   \   000037   7402         MOV     A,#0x2
   \   000039   12....       LCALL   ?XSTACK_DISP0_8
   \   00003C   E4           CLR     A
   \   00003D   F0           MOVX    @DPTR,A
    509              pub_buf[3]=0x03;
   \   00003E   7403         MOV     A,#0x3
   \   000040   12....       LCALL   ?XSTACK_DISP0_8
   \   000043   7403         MOV     A,#0x3
   \   000045   F0           MOVX    @DPTR,A
    510              pub_buf[4]=0x6D;   //'m'
   \   000046   04           INC     A
   \   000047   12....       LCALL   ?XSTACK_DISP0_8
   \   00004A   746D         MOV     A,#0x6d
   \   00004C   F0           MOVX    @DPTR,A
    511              pub_buf[5]=0x73;  //'s'
   \   00004D   7405         MOV     A,#0x5
   \   00004F   12....       LCALL   ?XSTACK_DISP0_8
   \   000052   7473         MOV     A,#0x73
   \   000054   F0           MOVX    @DPTR,A
    512              pub_buf[6]=0x67;   //'g'
   \   000055   7406         MOV     A,#0x6
   \   000057   12....       LCALL   ?XSTACK_DISP0_8
   \   00005A   7467         MOV     A,#0x67
   \   00005C   12....       LCALL   ?Subroutine5 & 0xFFFF
    513              strcpy(&pub_buf[7],pkt->cmd.Data);
                            ^
Warning[Pe167]: argument of type "unsigned char *" is incompatible with
          parameter of type "char *"

      strcpy(&pub_buf[7],pkt->cmd.Data);
                         ^
"C:\Users\86158\Desktop\8.气体传感器\ZStack-CC2530-2.3.0-1.4.0\Projects\zstack\Samples\SampleApp\Source\SampleApp.c",513  Warning[Pe167]: 
          argument of type "unsigned char *" is incompatible with parameter of
          type "char const *"
   \                     ??CrossCallReturnLabel_6:
   \   00005F   7407         MOV     A,#0x7
   \   000061   12....       LCALL   ?XSTACK_DISP0_8
   \   000064   12....       LCALL   ?Subroutine15 & 0xFFFF
    514              HalUARTWrite(1, pub_buf, pkt->cmd.DataLength+7);
   \                     ??CrossCallReturnLabel_35:
   \   000067   2407         ADD     A,#0x7
   \   000069   02....       LJMP    ?Subroutine1 & 0xFFFF
    515              // HalUARTWrite(0, pub_buf, pkt->cmd.DataLength+7);
    516              // HalUARTWrite(0, '\0', 1);
    517          }
    518          
    519          //订阅主题

   \                                 In  segment BANKED_CODE, align 1, keep-with-next
    520          void sub_msg(void){
   \                     sub_msg:
   \   000000   74F6         MOV     A,#-0xa
   \   000002   12....       LCALL   ?BANKED_ENTER_XDATA
   \   000005                ; Saved register size: 10
   \   000005                ; Auto size: 64
   \   000005   74C0         MOV     A,#-0x40
   \   000007   12....       LCALL   ?ALLOC_XSTACK8
    521            unsigned char sub_buf[64];
    522             memset(sub_buf,0,64);
   \   00000A                ; Setup parameters for call to function memset
   \   00000A   75..40       MOV     ?V0 + 0,#0x40
   \   00000D   75..00       MOV     ?V0 + 1,#0x0
   \   000010   78..         MOV     R0,#?V0 + 0
   \   000012   12....       LCALL   ?PUSH_XSTACK_I_TWO
   \   000015   7C00         MOV     R4,#0x0
   \   000017   7D00         MOV     R5,#0x0
   \   000019   7402         MOV     A,#0x2
   \   00001B   12....       LCALL   ?XSTACK_DISP0_8
   \   00001E   12....       LCALL   ?Subroutine12 & 0xFFFF
   \                     ??CrossCallReturnLabel_23:
   \   000021   12....       LCALL   ?DEALLOC_XSTACK8
    523            //组包
    524              sub_buf[0]=0x82;
   \   000024   85..82       MOV     DPL,?XSP + 0
   \   000027   85..83       MOV     DPH,?XSP + 1
   \   00002A   7482         MOV     A,#-0x7e
   \   00002C   F0           MOVX    @DPTR,A
    525              sub_buf[1]=0x08;  //包的剩余长度
   \   00002D   7401         MOV     A,#0x1
   \   00002F   12....       LCALL   ?XSTACK_DISP0_8
   \   000032   7408         MOV     A,#0x8
   \   000034   F0           MOVX    @DPTR,A
    526              sub_buf[2]=0x00;
   \   000035   7402         MOV     A,#0x2
   \   000037   12....       LCALL   ?XSTACK_DISP0_8
   \   00003A   E4           CLR     A
   \   00003B   F0           MOVX    @DPTR,A
    527              sub_buf[3]=0x02;
   \   00003C   7403         MOV     A,#0x3
   \   00003E   12....       LCALL   ?XSTACK_DISP0_8
   \   000041   7402         MOV     A,#0x2
   \   000043   F0           MOVX    @DPTR,A
    528              sub_buf[4]=0x00;   
   \   000044   7404         MOV     A,#0x4
   \   000046   12....       LCALL   ?XSTACK_DISP0_8
   \   000049   E4           CLR     A
   \   00004A   F0           MOVX    @DPTR,A
    529              sub_buf[5]=0x03;  
   \   00004B   7405         MOV     A,#0x5
   \   00004D   12....       LCALL   ?XSTACK_DISP0_8
   \   000050   7403         MOV     A,#0x3
   \   000052   F0           MOVX    @DPTR,A
    530              sub_buf[6]=0x6D;        //'m'
   \   000053   7406         MOV     A,#0x6
   \   000055   12....       LCALL   ?XSTACK_DISP0_8
   \   000058   746D         MOV     A,#0x6d
   \   00005A   F0           MOVX    @DPTR,A
    531              sub_buf[7]=0x73;     //'s'
   \   00005B   7407         MOV     A,#0x7
   \   00005D   12....       LCALL   ?XSTACK_DISP0_8
   \   000060   7473         MOV     A,#0x73
   \   000062   F0           MOVX    @DPTR,A
    532              sub_buf[8]=0x67;    //'g'
   \   000063   7408         MOV     A,#0x8
   \   000065   12....       LCALL   ?XSTACK_DISP0_8
   \   000068   7467         MOV     A,#0x67
   \   00006A   F0           MOVX    @DPTR,A
    533              sub_buf[9]=0x00;
   \   00006B   7409         MOV     A,#0x9
   \   00006D   12....       LCALL   ?XSTACK_DISP0_8
   \   000070   E4           CLR     A
   \   000071   F0           MOVX    @DPTR,A
    534              HalUARTWrite(1, sub_buf, 10);
   \   000072                ; Setup parameters for call to function HalUARTWrite
   \   000072   7C0A         MOV     R4,#0xa
   \   000074   02....       LJMP    ??Subroutine24_0 & 0xFFFF
    535               //HalUARTWrite(0, sub_buf, 10);
    536              //HalUARTWrite(0, '\0', 1);
    537          }
    538          //提取接收字符串中的数据

   \                                 In  segment BANKED_CODE, align 1, keep-with-next
    539          int get_data(const char* data_name,char* recv,int recv_len){
   \                     get_data:
   \   000000   74EC         MOV     A,#-0x14
   \   000002   12....       LCALL   ?BANKED_ENTER_XDATA
   \   000005                ; Saved register size: 20
   \   000005                ; Auto size: 0
   \   000005   8A..         MOV     ?V0 + 2,R2
   \   000007   8B..         MOV     ?V0 + 3,R3
   \   000009   8C..         MOV     ?V0 + 4,R4
   \   00000B   8D..         MOV     ?V0 + 5,R5
    540              char *str_head,*str_tail;
    541              int data=0;
   \   00000D   7E00         MOV     R6,#0x0
   \   00000F   7F00         MOV     R7,#0x0
    542              int data_len,data_name_len;
    543              data_name_len=strlen(data_name);	
   \   000011                ; Setup parameters for call to function strlen
   \   000011   12....       LCALL   ??strlen?relay
   \   000014   8A..         MOV     ?V0 + 0,R2
   \   000016   8B..         MOV     ?V0 + 1,R3
    544              str_head=strstr(recv,data_name);
   \   000018                ; Setup parameters for call to function strstr
   \   000018   AC..         MOV     R4,?V0 + 2
   \   00001A   AD..         MOV     R5,?V0 + 3
   \   00001C   AA..         MOV     R2,?V0 + 4
   \   00001E   AB..         MOV     R3,?V0 + 5
   \   000020   12....       LCALL   ??strstr?relay
   \   000023   8A..         MOV     ?V0 + 2,R2
   \   000025   8B..         MOV     ?V0 + 3,R3
    545              if(str_head==NULL) return 0;
   \   000027   EA           MOV     A,R2
   \   000028   45..         ORL     A,?V0 + 3
   \   00002A   7007         JNZ     ??get_data_0
   \                     ??get_data_1:
   \   00002C   7A00         MOV     R2,#0x0
   \   00002E   7B00         MOV     R3,#0x0
   \   000030   02....       LJMP    ??get_data_2 & 0xFFFF
    546               //HalUARTWrite(0, str_head, strlen(str_head));
    547              str_tail=strstr(str_head,",");
   \                     ??get_data_0:
   \   000033                ; Setup parameters for call to function strstr
   \   000033   7C..         MOV     R4,#`?<Constant ",">` & 0xff
   \   000035   7D..         MOV     R5,#(`?<Constant ",">` >> 8) & 0xff
   \   000037   12....       LCALL   ??strstr?relay
   \   00003A   8A..         MOV     ?V0 + 8,R2
   \   00003C   8B..         MOV     ?V0 + 9,R3
    548              if(str_tail==NULL) return 0;
   \   00003E   EA           MOV     A,R2
   \   00003F   45..         ORL     A,?V0 + 9
   \   000041   60E9         JZ      ??get_data_1
    549              data_len=strlen(str_head)-strlen(str_tail)-data_name_len-1;
    550              switch(data_len){
   \   000043                ; Setup parameters for call to function strlen
   \   000043   AA..         MOV     R2,?V0 + 2
   \   000045   AB..         MOV     R3,?V0 + 3
   \   000047   12....       LCALL   ??strlen?relay
   \   00004A   8A..         MOV     ?V0 + 10,R2
   \   00004C   8B..         MOV     ?V0 + 11,R3
   \   00004E   E5..         MOV     A,?V0 + 2
   \   000050   25..         ADD     A,?V0 + 0
   \   000052   F5..         MOV     ?V0 + 2,A
   \   000054   E5..         MOV     A,?V0 + 3
   \   000056   35..         ADDC    A,?V0 + 1
   \   000058   F5..         MOV     ?V0 + 3,A
   \   00005A   E5..         MOV     A,?V0 + 2
   \   00005C   2402         ADD     A,#0x2
   \   00005E   F5..         MOV     ?V0 + 4,A
   \   000060   E5..         MOV     A,?V0 + 3
   \   000062   3400         ADDC    A,#0x0
   \   000064   F5..         MOV     ?V0 + 5,A
   \   000066   85..82       MOV     DPL,?V0 + 2
   \   000069   85..83       MOV     DPH,?V0 + 3
   \   00006C   A3           INC     DPTR
   \   00006D   8582..       MOV     ?V0 + 6,DPL
   \   000070   8583..       MOV     ?V0 + 7,DPH
   \   000073                ; Setup parameters for call to function strlen
   \   000073   AA..         MOV     R2,?V0 + 8
   \   000075   AB..         MOV     R3,?V0 + 9
   \   000077   12....       LCALL   ??strlen?relay
   \   00007A   8A..         MOV     ?V0 + 8,R2
   \   00007C   8B..         MOV     ?V0 + 9,R3
   \   00007E   E5..         MOV     A,?V0 + 10
   \   000080   C3           CLR     C
   \   000081   95..         SUBB    A,?V0 + 8
   \   000083   F8           MOV     R0,A
   \   000084   E5..         MOV     A,?V0 + 11
   \   000086   95..         SUBB    A,?V0 + 9
   \   000088   F9           MOV     R1,A
   \   000089   E8           MOV     A,R0
   \   00008A   C3           CLR     C
   \   00008B   95..         SUBB    A,?V0 + 0
   \   00008D   F8           MOV     R0,A
   \   00008E   E9           MOV     A,R1
   \   00008F   95..         SUBB    A,?V0 + 1
   \   000091   F9           MOV     R1,A
   \   000092   E8           MOV     A,R0
   \   000093   24FF         ADD     A,#-0x1
   \   000095   F5..         MOV     ?V0 + 0,A
   \   000097   E9           MOV     A,R1
   \   000098   34FF         ADDC    A,#-0x1
   \   00009A   F5..         MOV     ?V0 + 1,A
   \   00009C   78..         MOV     R0,#?V0 + 0
   \   00009E   12....       LCALL   ?US_SWITCH_DENSE
   \                     `?<Jumptable for get_data>_0`:
   \   0000A1   0100         DW        1
   \   0000A3   02           DB        2
   \   0000A4   ....         DW        ??get_data_3
   \   0000A6   ....         DW        ??get_data_4
   \   0000A8   ....         DW        ??get_data_5
   \   0000AA   ....         DW        ??get_data_6
    551                      case 1:data=str_head[data_name_len+1]-'0';break;
   \                     ??get_data_4:
   \   0000AC   85..82       MOV     DPL,?V0 + 6
   \   0000AF   85..83       MOV     DPH,?V0 + 7
   \   0000B2   E0           MOVX    A,@DPTR
   \   0000B3   24D0         ADD     A,#-0x30
   \   0000B5   FE           MOV     R6,A
   \   0000B6   E4           CLR     A
   \   0000B7   34FF         ADDC    A,#-0x1
   \   0000B9   8060         SJMP    ??get_data_7
    552                      case 2:data=(str_head[data_name_len+1]-'0')*10+(str_head[data_name_len+2]-'0');break;
   \                     ??get_data_5:
   \   0000BB   85..82       MOV     DPL,?V0 + 6
   \   0000BE   85..83       MOV     DPH,?V0 + 7
   \   0000C1   E0           MOVX    A,@DPTR
   \   0000C2   75F00A       MOV     B,#0xa
   \   0000C5   A4           MUL     AB
   \   0000C6   F8           MOV     R0,A
   \   0000C7   85..82       MOV     DPL,?V0 + 4
   \   0000CA   85..83       MOV     DPH,?V0 + 5
   \   0000CD   E0           MOVX    A,@DPTR
   \   0000CE   FA           MOV     R2,A
   \   0000CF   E8           MOV     A,R0
   \   0000D0   2A           ADD     A,R2
   \   0000D1   F8           MOV     R0,A
   \   0000D2   E5F0         MOV     A,B
   \   0000D4   3400         ADDC    A,#0x0
   \   0000D6   F9           MOV     R1,A
   \   0000D7   E8           MOV     A,R0
   \   0000D8   24F0         ADD     A,#-0x10
   \   0000DA   FE           MOV     R6,A
   \   0000DB   E9           MOV     A,R1
   \   0000DC   34FD         ADDC    A,#-0x3
   \   0000DE   803B         SJMP    ??get_data_7
    553                      case 3:data=(str_head[data_name_len+1]-'0')*100+(str_head[data_name_len+2]-'0')*10+(str_head[data_name_len+3]-'0');break;
   \                     ??get_data_6:
   \   0000E0   85..82       MOV     DPL,?V0 + 6
   \   0000E3   85..83       MOV     DPH,?V0 + 7
   \   0000E6   E0           MOVX    A,@DPTR
   \   0000E7   75F064       MOV     B,#0x64
   \   0000EA   A4           MUL     AB
   \   0000EB   F8           MOV     R0,A
   \   0000EC   A9F0         MOV     R1,B
   \   0000EE   85..82       MOV     DPL,?V0 + 4
   \   0000F1   85..83       MOV     DPH,?V0 + 5
   \   0000F4   E0           MOVX    A,@DPTR
   \   0000F5   75F00A       MOV     B,#0xa
   \   0000F8   A4           MUL     AB
   \   0000F9   FA           MOV     R2,A
   \   0000FA   ABF0         MOV     R3,B
   \   0000FC   E8           MOV     A,R0
   \   0000FD   2A           ADD     A,R2
   \   0000FE   F8           MOV     R0,A
   \   0000FF   E9           MOV     A,R1
   \   000100   3B           ADDC    A,R3
   \   000101   F9           MOV     R1,A
   \   000102   85..82       MOV     DPL,?V0 + 2
   \   000105   85..83       MOV     DPH,?V0 + 3
   \   000108   A3           INC     DPTR
   \   000109   A3           INC     DPTR
   \   00010A   A3           INC     DPTR
   \   00010B   E0           MOVX    A,@DPTR
   \   00010C   FA           MOV     R2,A
   \   00010D   E8           MOV     A,R0
   \   00010E   2A           ADD     A,R2
   \   00010F   F8           MOV     R0,A
   \   000110   E9           MOV     A,R1
   \   000111   3400         ADDC    A,#0x0
   \   000113   F9           MOV     R1,A
   \   000114   E8           MOV     A,R0
   \   000115   2430         ADD     A,#0x30
   \   000117   FE           MOV     R6,A
   \   000118   E9           MOV     A,R1
   \   000119   34EB         ADDC    A,#-0x15
   \                     ??get_data_7:
   \   00011B   FF           MOV     R7,A
    554                     // case 4:data=(str_head[data_name_len+1]-'0')*1000+(str_head[data_name_len+2]-'0')*100+str_head[data_name_len+3]*10+str_head[data_name_len+4];break;
    555                      default:break;
    556              
    557              }
    558                      
    559                      return data;
   \                     ??get_data_3:
   \   00011C   EE           MOV     A,R6
   \   00011D   FA           MOV     R2,A
   \   00011E   EF           MOV     A,R7
   \   00011F   FB           MOV     R3,A
   \                     ??get_data_2:
   \   000120   7F0C         MOV     R7,#0xc
   \   000122   02....       LJMP    ?BANKED_LEAVE_XDATA
    560           }
    561          
    562          
    563          /*********************************************************************
    564           * LOCAL FUNCTIONS
    565           */
    566          
    567          /*********************************************************************
    568           * @fn      SampleApp_MessageMSGCB
    569           *
    570           * @brief   Data message processor callback.  This function processes
    571           *          any incoming data - probably from other devices.  So, based
    572           *          on cluster ID, perform the intended action.
    573           *
    574           * @param   none
    575           *
    576           * @return  none
    577           */

   \                                 In  segment BANKED_CODE, align 1, keep-with-next
    578          void SampleApp_MessageMSGCB( afIncomingMSGPacket_t *pkt )
   \                     SampleApp_MessageMSGCB:
    579          {
   \   000000   74F4         MOV     A,#-0xc
   \   000002   12....       LCALL   ?BANKED_ENTER_XDATA
   \   000005                ; Saved register size: 12
   \   000005                ; Auto size: 104
   \   000005   7498         MOV     A,#-0x68
   \   000007   12....       LCALL   ?ALLOC_XSTACK8
   \   00000A   8A..         MOV     ?V0 + 0,R2
   \   00000C   8B..         MOV     ?V0 + 1,R3
    580            uint16 flashTime;
    581           // char HttpData[170];
    582            char send_data[70];
    583            memset(send_data,0,70);
   \   00000E                ; Setup parameters for call to function memset
   \   00000E   75..46       MOV     ?V0 + 2,#0x46
   \   000011   75..00       MOV     ?V0 + 3,#0x0
   \   000014   78..         MOV     R0,#?V0 + 2
   \   000016   12....       LCALL   ?PUSH_XSTACK_I_TWO
   \   000019   7C00         MOV     R4,#0x0
   \   00001B   7D00         MOV     R5,#0x0
   \   00001D   7424         MOV     A,#0x24
   \   00001F   12....       LCALL   ?XSTACK_DISP0_8
   \   000022   12....       LCALL   ?Subroutine12 & 0xFFFF
   \                     ??CrossCallReturnLabel_24:
   \   000025   12....       LCALL   ?DEALLOC_XSTACK8
    584           // unsigned char data[64];
    585            unsigned char buftemp[32];
    586            //unsigned char time_buf[32];
    587            unsigned char heart[2]={0xc0,0x00};
   \   000028   85..82       MOV     DPL,?XSP + 0
   \   00002B   85..83       MOV     DPH,?XSP + 1
   \   00002E   AC82         MOV     R4,DPL
   \   000030   AD83         MOV     R5,DPH
   \   000032   7583..       MOV     DPH,#(`?<Constant {192, 0}>` >> 8) & 0xff
   \   000035   7582..       MOV     DPL,#`?<Constant {192, 0}>` & 0xff
   \   000038   7402         MOV     A,#0x2
   \   00003A   12....       LCALL   ?MOVE_LONG8_XDATA_XDATA
    588            uint8 hour,minute;
    589            switch ( pkt->clusterId )
   \   00003D   85..82       MOV     DPL,?V0 + 0
   \   000040   85..83       MOV     DPH,?V0 + 1
   \   000043   A3           INC     DPTR
   \   000044   A3           INC     DPTR
   \   000045   A3           INC     DPTR
   \   000046   A3           INC     DPTR
   \   000047   E0           MOVX    A,@DPTR
   \   000048   F5..         MOV     ?V0 + 2,A
   \   00004A   A3           INC     DPTR
   \   00004B   E0           MOVX    A,@DPTR
   \   00004C   F5..         MOV     ?V0 + 3,A
   \   00004E   78..         MOV     R0,#?V0 + 2
   \   000050   12....       LCALL   ?US_SWITCH_DENSE
   \                     `?<Jumptable for SampleApp_MessageMSGCB>_0`:
   \   000053   0200         DW        2
   \   000055   02           DB        2
   \   000056   ....         DW        ??SampleApp_MessageMSGCB_0
   \   000058   ....         DW        ??SampleApp_MessageMSGCB_1
   \   00005A   ....         DW        ??SampleApp_MessageMSGCB_0
   \   00005C   ....         DW        ??SampleApp_MessageMSGCB_2
    590            {
    591              case SAMPLEAPP_P2P_CLUSTERID:
    592                
    593                //组包，发送到stm32主控
    594                strcpy(send_data,pkt->cmd.Data);
                                        ^
Warning[Pe167]: argument of type "unsigned char *" is incompatible with
          parameter of type "char const *"
   \                     ??SampleApp_MessageMSGCB_2:
   \   00005E                ; Setup parameters for call to function strcpy
   \   00005E   12....       LCALL   ?Subroutine14 & 0xFFFF
   \                     ??CrossCallReturnLabel_32:
   \   000061   FC           MOV     R4,A
   \   000062   A3           INC     DPTR
   \   000063   E0           MOVX    A,@DPTR
   \   000064   FD           MOV     R5,A
   \   000065   7422         MOV     A,#0x22
   \   000067   12....       LCALL   ?XSTACK_DISP0_8
   \   00006A   AA82         MOV     R2,DPL
   \   00006C   AB83         MOV     R3,DPH
   \   00006E   12....       LCALL   ??strcpy?relay
    595                send_data[pkt->cmd.DataLength-3]=',';
   \   000071   E5..         MOV     A,?V0 + 0
   \   000073   241F         ADD     A,#0x1f
   \   000075   FE           MOV     R6,A
   \   000076   E5..         MOV     A,?V0 + 1
   \   000078   3400         ADDC    A,#0x0
   \   00007A   FF           MOV     R7,A
   \   00007B   8E82         MOV     DPL,R6
   \   00007D   8F83         MOV     DPH,R7
   \   00007F   E0           MOVX    A,@DPTR
   \   000080   F8           MOV     R0,A
   \   000081   A3           INC     DPTR
   \   000082   E0           MOVX    A,@DPTR
   \   000083   F9           MOV     R1,A
   \   000084   7422         MOV     A,#0x22
   \   000086   12....       LCALL   ?XSTACK_DISP0_8
   \   000089   12....       LCALL   ?Subroutine18 & 0xFFFF
   \                     ??CrossCallReturnLabel_41:
   \   00008C   24FD         ADD     A,#-0x3
   \   00008E   F582         MOV     DPL,A
   \   000090   E9           MOV     A,R1
   \   000091   34FF         ADDC    A,#-0x1
   \   000093   F583         MOV     DPH,A
   \   000095   742C         MOV     A,#0x2c
   \   000097   12....       LCALL   ?Subroutine3 & 0xFFFF
    596                send_data[pkt->cmd.DataLength-2]='}';
   \                     ??CrossCallReturnLabel_0:
   \   00009A   12....       LCALL   ?XSTACK_DISP0_8
   \   00009D   12....       LCALL   ?Subroutine18 & 0xFFFF
   \                     ??CrossCallReturnLabel_42:
   \   0000A0   24FE         ADD     A,#-0x2
   \   0000A2   F582         MOV     DPL,A
   \   0000A4   E9           MOV     A,R1
   \   0000A5   34FF         ADDC    A,#-0x1
   \   0000A7   F583         MOV     DPH,A
   \   0000A9   747D         MOV     A,#0x7d
   \   0000AB   12....       LCALL   ?Subroutine3 & 0xFFFF
    597                send_data[pkt->cmd.DataLength-1]='\r';
   \                     ??CrossCallReturnLabel_1:
   \   0000AE   12....       LCALL   ?XSTACK_DISP0_8
   \   0000B1   12....       LCALL   ?Subroutine18 & 0xFFFF
   \                     ??CrossCallReturnLabel_43:
   \   0000B4   24FF         ADD     A,#-0x1
   \   0000B6   F582         MOV     DPL,A
   \   0000B8   E9           MOV     A,R1
   \   0000B9   34FF         ADDC    A,#-0x1
   \   0000BB   F583         MOV     DPH,A
   \   0000BD   740D         MOV     A,#0xd
   \   0000BF   12....       LCALL   ?Subroutine3 & 0xFFFF
    598                send_data[pkt->cmd.DataLength]='\n';
   \                     ??CrossCallReturnLabel_2:
   \   0000C2   12....       LCALL   ?XSTACK_DISP0_8
   \   0000C5   E582         MOV     A,DPL
   \   0000C7   28           ADD     A,R0
   \   0000C8   F582         MOV     DPL,A
   \   0000CA   E583         MOV     A,DPH
   \   0000CC   39           ADDC    A,R1
   \   0000CD   F583         MOV     DPH,A
   \   0000CF   740A         MOV     A,#0xa
   \   0000D1   F0           MOVX    @DPTR,A
    599                HalUARTWrite(0,send_data,pkt->cmd.DataLength+1);
                                      ^
Warning[Pe167]: argument of type "char *" is incompatible with parameter of
          type "unsigned char *"
   \   0000D2                ; Setup parameters for call to function HalUARTWrite
   \   0000D2   8E82         MOV     DPL,R6
   \   0000D4   8F83         MOV     DPH,R7
   \   0000D6   E0           MOVX    A,@DPTR
   \   0000D7   2401         ADD     A,#0x1
   \   0000D9   FC           MOV     R4,A
   \   0000DA   A3           INC     DPTR
   \   0000DB   E0           MOVX    A,@DPTR
   \   0000DC   3400         ADDC    A,#0x0
   \   0000DE   FD           MOV     R5,A
   \   0000DF   7422         MOV     A,#0x22
   \   0000E1   12....       LCALL   ?XSTACK_DISP0_8
   \   0000E4   AA82         MOV     R2,DPL
   \   0000E6   AB83         MOV     R3,DPH
   \   0000E8   12....       LCALL   ?Subroutine7 & 0xFFFF
    600                HalUARTWrite(0, "\0", 1);
   \                     ??CrossCallReturnLabel_7:
   \   0000EB   12....       LCALL   ??Subroutine27_0 & 0xFFFF
    601                /*
    602                 ds1302_read_time();
    603                 sprintf(dis_time_buf,"y:%d,s:%d",(time_buf[6]>>4)*10+(time_buf[6]&0x0f)+2000,(time_buf[0]>>4)*10+(time_buf[0]&0x0f));
    604                //HalUARTWrite(0,"{ADD}",strlen("{ADD}"));
    605                HalLcdWriteString(dis_time_buf,HAL_LCD_LINE_1);
    606                memset(dis_time_buf,0,16);
    607               //sprintf(time_buf,"time:%d",count++);
    608               //HalLcdWriteString(time_buf,HAL_LCD_LINE_2);
    609                // hour=dis_time_buf[8]*10+dis_time_buf[9];
    610                // minute=dis_time_buf[10]*10+dis_time_buf[11];
    611                 //HalLcdWriteString(time_buf,HAL_LCD_LINE_1);
    612                if(hour==Sethour && minute==Setmiunte){
    613                  if(food_flag==0){
    614                    HalUARTWrite(0,"{ADD}",strlen("{ADD}"));
    615                    HalUARTWrite(0,"\0",1);
    616                    food_flag=60;
    617                }
    618                 else food_flag--;               
    619                   
    620                }
    621                */
    622              
    623                //如果MQTT连接建立完成
    624                if(flat==7)
   \                     ??CrossCallReturnLabel_62:
   \   0000EE   E0           MOVX    A,@DPTR
   \   0000EF   6407         XRL     A,#0x7
   \   0000F1   6003         JZ      $+5
   \   0000F3   02....       LJMP    ??SampleApp_MessageMSGCB_0 & 0xFFFF
    625                {   
    626                  //保持心跳
    627                  HalUARTWrite(1,heart,2);
   \   0000F6                ; Setup parameters for call to function HalUARTWrite
   \   0000F6   7C02         MOV     R4,#0x2
   \   0000F8   7D00         MOV     R5,#0x0
   \   0000FA   85..82       MOV     DPL,?XSP + 0
   \   0000FD   85..83       MOV     DPH,?XSP + 1
   \   000100   AA82         MOV     R2,DPL
   \   000102   AB83         MOV     R3,DPH
   \   000104   7901         MOV     R1,#0x1
   \   000106   12....       LCALL   ??HalUARTWrite?relay
    628                  //订阅主题
    629                  sub_msg();
   \   000109                ; Setup parameters for call to function sub_msg
   \   000109   12....       LCALL   ??sub_msg?relay
    630                  //上传数据点到OneNET云平台
    631                  send_onenet(pkt);
   \   00010C                ; Setup parameters for call to function send_onenet
   \   00010C   AA..         MOV     R2,?V0 + 0
   \   00010E   AB..         MOV     R3,?V0 + 1
   \   000110   12....       LCALL   ??send_onenet?relay
    632                  //发布主题
    633                  publish_msg(pkt);    
   \   000113                ; Setup parameters for call to function publish_msg
   \   000113   AA..         MOV     R2,?V0 + 0
   \   000115   AB..         MOV     R3,?V0 + 1
   \   000117   12....       LCALL   ??publish_msg?relay
    634                  //在OLED显示
    635                    memset(buftemp,0,32);
   \   00011A                ; Setup parameters for call to function memset
   \   00011A   75..20       MOV     ?V0 + 0,#0x20
   \   00011D   75..00       MOV     ?V0 + 1,#0x0
   \   000120   78..         MOV     R0,#?V0 + 0
   \   000122   12....       LCALL   ?PUSH_XSTACK_I_TWO
   \   000125   7C00         MOV     R4,#0x0
   \   000127   7D00         MOV     R5,#0x0
   \   000129   7404         MOV     A,#0x4
   \   00012B   12....       LCALL   ?XSTACK_DISP0_8
   \   00012E   12....       LCALL   ?Subroutine12 & 0xFFFF
   \                     ??CrossCallReturnLabel_25:
   \   000131   12....       LCALL   ?DEALLOC_XSTACK8
    636                    sprintf(buftemp,"temp:%d",get_data("\"temp\"",send_data,pkt->cmd.DataLength+1));
                                   ^
Warning[Pe167]: argument of type "unsigned char *" is incompatible with
          parameter of type "char *"
   \   000134                ; Setup parameters for call to function sprintf
   \   000134                ; Setup parameters for call to function get_data
   \   000134   12....       LCALL   ?Subroutine11 & 0xFFFF
   \                     ??CrossCallReturnLabel_17:
   \   000137   12....       LCALL   ?PUSH_XSTACK_I_TWO
   \   00013A   7424         MOV     A,#0x24
   \   00013C   12....       LCALL   ?XSTACK_DISP0_8
   \   00013F   AC82         MOV     R4,DPL
   \   000141   AD83         MOV     R5,DPH
   \   000143   7A..         MOV     R2,#`?<Constant "\\"temp\\"">` & 0xff
   \   000145   7B..         MOV     R3,#(`?<Constant "\\"temp\\"">` >> 8) & 0xff
   \   000147   12....       LCALL   ?Subroutine19 & 0xFFFF
   \                     ??CrossCallReturnLabel_44:
   \   00014A   12....       LCALL   ?DEALLOC_XSTACK8
   \   00014D   8A..         MOV     ?V0 + 0,R2
   \   00014F   8B..         MOV     ?V0 + 1,R3
   \   000151   78..         MOV     R0,#?V0 + 0
   \   000153   12....       LCALL   ?PUSH_XSTACK_I_TWO
   \   000156   7C..         MOV     R4,#`?<Constant "temp:%d">` & 0xff
   \   000158   7D..         MOV     R5,#(`?<Constant "temp:%d">` >> 8) & 0xff
   \   00015A   7404         MOV     A,#0x4
   \   00015C   12....       LCALL   ?XSTACK_DISP0_8
   \   00015F   12....       LCALL   ?Subroutine20 & 0xFFFF
   \                     ??CrossCallReturnLabel_48:
   \   000162   12....       LCALL   ?DEALLOC_XSTACK8
    637                   HalLcdWriteString(buftemp,HAL_LCD_LINE_1);
                                            ^
Warning[Pe167]: argument of type "unsigned char *" is incompatible with
          parameter of type "char *"
   \   000165                ; Setup parameters for call to function HalLcdWriteString
   \   000165   7901         MOV     R1,#0x1
   \   000167   7402         MOV     A,#0x2
   \   000169   12....       LCALL   ?XSTACK_DISP0_8
   \   00016C   12....       LCALL   ?Subroutine16 & 0xFFFF
    638                   memset(buftemp,0,32);
   \                     ??CrossCallReturnLabel_36:
   \   00016F   12....       LCALL   ?PUSH_XSTACK_I_TWO
   \   000172   7C00         MOV     R4,#0x0
   \   000174   7D00         MOV     R5,#0x0
   \   000176   7404         MOV     A,#0x4
   \   000178   12....       LCALL   ?XSTACK_DISP0_8
   \   00017B   12....       LCALL   ?Subroutine12 & 0xFFFF
   \                     ??CrossCallReturnLabel_26:
   \   00017E   12....       LCALL   ?DEALLOC_XSTACK8
    639                   sprintf(buftemp,"humid:%d",get_data("\"humid\"",send_data,pkt->cmd.DataLength+1));
                                  ^
Warning[Pe167]: argument of type "unsigned char *" is incompatible with
          parameter of type "char *"
   \   000181                ; Setup parameters for call to function sprintf
   \   000181                ; Setup parameters for call to function get_data
   \   000181   12....       LCALL   ?Subroutine11 & 0xFFFF
   \                     ??CrossCallReturnLabel_18:
   \   000184   12....       LCALL   ?PUSH_XSTACK_I_TWO
   \   000187   7424         MOV     A,#0x24
   \   000189   12....       LCALL   ?XSTACK_DISP0_8
   \   00018C   AC82         MOV     R4,DPL
   \   00018E   AD83         MOV     R5,DPH
   \   000190   7A..         MOV     R2,#`?<Constant "\\"humid\\"">` & 0xff
   \   000192   7B..         MOV     R3,#(`?<Constant "\\"humid\\"">` >> 8) & 0xff
   \   000194   12....       LCALL   ?Subroutine19 & 0xFFFF
   \                     ??CrossCallReturnLabel_45:
   \   000197   12....       LCALL   ?DEALLOC_XSTACK8
   \   00019A   8A..         MOV     ?V0 + 0,R2
   \   00019C   8B..         MOV     ?V0 + 1,R3
   \   00019E   78..         MOV     R0,#?V0 + 0
   \   0001A0   12....       LCALL   ?PUSH_XSTACK_I_TWO
   \   0001A3   7C..         MOV     R4,#`?<Constant "humid:%d">` & 0xff
   \   0001A5   7D..         MOV     R5,#(`?<Constant "humid:%d">` >> 8) & 0xff
   \   0001A7   7404         MOV     A,#0x4
   \   0001A9   12....       LCALL   ?XSTACK_DISP0_8
   \   0001AC   12....       LCALL   ?Subroutine20 & 0xFFFF
   \                     ??CrossCallReturnLabel_49:
   \   0001AF   12....       LCALL   ?DEALLOC_XSTACK8
    640                  HalLcdWriteString(buftemp,HAL_LCD_LINE_2);
                                           ^
Warning[Pe167]: argument of type "unsigned char *" is incompatible with
          parameter of type "char *"
   \   0001B2                ; Setup parameters for call to function HalLcdWriteString
   \   0001B2   7902         MOV     R1,#0x2
   \   0001B4   E9           MOV     A,R1
   \   0001B5   12....       LCALL   ?XSTACK_DISP0_8
   \   0001B8   12....       LCALL   ?Subroutine16 & 0xFFFF
    641                   memset(buftemp,0,32);
   \                     ??CrossCallReturnLabel_37:
   \   0001BB   12....       LCALL   ?PUSH_XSTACK_I_TWO
   \   0001BE   7C00         MOV     R4,#0x0
   \   0001C0   7D00         MOV     R5,#0x0
   \   0001C2   7404         MOV     A,#0x4
   \   0001C4   12....       LCALL   ?XSTACK_DISP0_8
   \   0001C7   12....       LCALL   ?Subroutine12 & 0xFFFF
   \                     ??CrossCallReturnLabel_27:
   \   0001CA   12....       LCALL   ?DEALLOC_XSTACK8
    642                   sprintf(buftemp,"air:%d",get_data("\"Air\"",send_data,pkt->cmd.DataLength+1));
                                  ^
Warning[Pe167]: argument of type "unsigned char *" is incompatible with
          parameter of type "char *"
   \   0001CD                ; Setup parameters for call to function sprintf
   \   0001CD                ; Setup parameters for call to function get_data
   \   0001CD   12....       LCALL   ?Subroutine11 & 0xFFFF
   \                     ??CrossCallReturnLabel_19:
   \   0001D0   12....       LCALL   ?PUSH_XSTACK_I_TWO
   \   0001D3   7424         MOV     A,#0x24
   \   0001D5   12....       LCALL   ?XSTACK_DISP0_8
   \   0001D8   AC82         MOV     R4,DPL
   \   0001DA   AD83         MOV     R5,DPH
   \   0001DC   7A..         MOV     R2,#`?<Constant "\\"Air\\"">` & 0xff
   \   0001DE   7B..         MOV     R3,#(`?<Constant "\\"Air\\"">` >> 8) & 0xff
   \   0001E0   12....       LCALL   ?Subroutine19 & 0xFFFF
   \                     ??CrossCallReturnLabel_46:
   \   0001E3   12....       LCALL   ?DEALLOC_XSTACK8
   \   0001E6   8A..         MOV     ?V0 + 0,R2
   \   0001E8   8B..         MOV     ?V0 + 1,R3
   \   0001EA   78..         MOV     R0,#?V0 + 0
   \   0001EC   12....       LCALL   ?PUSH_XSTACK_I_TWO
   \   0001EF   7C..         MOV     R4,#`?<Constant "air:%d">` & 0xff
   \   0001F1   7D..         MOV     R5,#(`?<Constant "air:%d">` >> 8) & 0xff
   \   0001F3   7404         MOV     A,#0x4
   \   0001F5   12....       LCALL   ?XSTACK_DISP0_8
   \   0001F8   12....       LCALL   ?Subroutine20 & 0xFFFF
   \                     ??CrossCallReturnLabel_50:
   \   0001FB   12....       LCALL   ?DEALLOC_XSTACK8
    643                  HalLcdWriteString(buftemp,HAL_LCD_LINE_3);
                                           ^
Warning[Pe167]: argument of type "unsigned char *" is incompatible with
          parameter of type "char *"
   \   0001FE                ; Setup parameters for call to function HalLcdWriteString
   \   0001FE   7903         MOV     R1,#0x3
   \   000200   7402         MOV     A,#0x2
   \   000202   12....       LCALL   ?XSTACK_DISP0_8
   \   000205   12....       LCALL   ?Subroutine16 & 0xFFFF
    644                  memset(buftemp,0,32);
   \                     ??CrossCallReturnLabel_38:
   \   000208   12....       LCALL   ?PUSH_XSTACK_I_TWO
   \   00020B   7C00         MOV     R4,#0x0
   \   00020D   7D00         MOV     R5,#0x0
   \   00020F   7404         MOV     A,#0x4
   \   000211   12....       LCALL   ?XSTACK_DISP0_8
   \   000214   12....       LCALL   ?Subroutine12 & 0xFFFF
   \                     ??CrossCallReturnLabel_28:
   \   000217   12....       LCALL   ?DEALLOC_XSTACK8
    645                   sprintf(buftemp,"food:%d",get_data("\"food\"",send_data,pkt->cmd.DataLength+1));
                                  ^
Warning[Pe167]: argument of type "unsigned char *" is incompatible with
          parameter of type "char *"
   \   00021A                ; Setup parameters for call to function sprintf
   \   00021A                ; Setup parameters for call to function get_data
   \   00021A   12....       LCALL   ?Subroutine11 & 0xFFFF
   \                     ??CrossCallReturnLabel_20:
   \   00021D   12....       LCALL   ?PUSH_XSTACK_I_TWO
   \   000220   7424         MOV     A,#0x24
   \   000222   12....       LCALL   ?XSTACK_DISP0_8
   \   000225   AC82         MOV     R4,DPL
   \   000227   AD83         MOV     R5,DPH
   \   000229   7A..         MOV     R2,#`?<Constant "\\"food\\"">` & 0xff
   \   00022B   7B..         MOV     R3,#(`?<Constant "\\"food\\"">` >> 8) & 0xff
   \   00022D   12....       LCALL   ?Subroutine19 & 0xFFFF
   \                     ??CrossCallReturnLabel_47:
   \   000230   12....       LCALL   ?DEALLOC_XSTACK8
   \   000233   8A..         MOV     ?V0 + 0,R2
   \   000235   8B..         MOV     ?V0 + 1,R3
   \   000237   78..         MOV     R0,#?V0 + 0
   \   000239   12....       LCALL   ?PUSH_XSTACK_I_TWO
   \   00023C   7C..         MOV     R4,#`?<Constant "food:%d">` & 0xff
   \   00023E   7D..         MOV     R5,#(`?<Constant "food:%d">` >> 8) & 0xff
   \   000240   7404         MOV     A,#0x4
   \   000242   12....       LCALL   ?XSTACK_DISP0_8
   \   000245   12....       LCALL   ?Subroutine20 & 0xFFFF
   \                     ??CrossCallReturnLabel_51:
   \   000248   12....       LCALL   ?DEALLOC_XSTACK8
    646                  HalLcdWriteString(buftemp,HAL_LCD_LINE_4);
                                           ^
Warning[Pe167]: argument of type "unsigned char *" is incompatible with
          parameter of type "char *"

    uint8 hour,minute;
          ^
"C:\Users\86158\Desktop\8.气体传感器\ZStack-CC2530-2.3.0-1.4.0\Projects\zstack\Samples\SampleApp\Source\SampleApp.c",588  Warning[Pe177]: 
          variable "hour" was declared but never referenced

    uint8 hour,minute;
               ^
"C:\Users\86158\Desktop\8.气体传感器\ZStack-CC2530-2.3.0-1.4.0\Projects\zstack\Samples\SampleApp\Source\SampleApp.c",588  Warning[Pe177]: 
          variable "minute" was declared but never referenced
   \   00024B                ; Setup parameters for call to function HalLcdWriteString
   \   00024B   7904         MOV     R1,#0x4
   \   00024D   7402         MOV     A,#0x2
   \   00024F   12....       LCALL   ?XSTACK_DISP0_8
   \   000252   AA82         MOV     R2,DPL
   \   000254   AB83         MOV     R3,DPH
   \   000256   12....       LCALL   ??HalLcdWriteString?relay
   \   000259   8033         SJMP    ??SampleApp_MessageMSGCB_0
    647          
    648                 
    649                }
    650                 else
    651                {
    652                  //SystemReset();
    653                }       // 回车换行
    654                
    655                break;    
    656              case SAMPLEAPP_PERIODIC_CLUSTERID:
    657                /*
    658                HalUARTWrite(0,pkt->cmd.Data,pkt->cmd.DataLength);
    659                HalUARTWrite(0, "\0", 1);
    660                memset(buftemp,0,32);
    661                sprintf(buftemp,"food:%d",get_data("food",pkt->cmd.Data,pkt->cmd.DataLength+1));
    662                HalLcdWriteString(buftemp,HAL_LCD_LINE_1);
    663                */
    664                break;
    665          
    666              case SAMPLEAPP_FLASH_CLUSTERID:
    667                flashTime = BUILD_UINT16(pkt->cmd.Data[1], pkt->cmd.Data[2] );
    668                HalLedBlink( HAL_LED_4, 4, 50, (flashTime / 4) );
   \                     ??SampleApp_MessageMSGCB_1:
   \   00025B   12....       LCALL   ?Subroutine14 & 0xFFFF
   \                     ??CrossCallReturnLabel_33:
   \   00025E   F8           MOV     R0,A
   \   00025F   A3           INC     DPTR
   \   000260   E0           MOVX    A,@DPTR
   \   000261   F9           MOV     R1,A
   \   000262                ; Setup parameters for call to function HalLedBlink
   \   000262   8882         MOV     DPL,R0
   \   000264   8983         MOV     DPH,R1
   \   000266   A3           INC     DPTR
   \   000267   E0           MOVX    A,@DPTR
   \   000268   FA           MOV     R2,A
   \   000269   8882         MOV     DPL,R0
   \   00026B   8983         MOV     DPH,R1
   \   00026D   A3           INC     DPTR
   \   00026E   A3           INC     DPTR
   \   00026F   E0           MOVX    A,@DPTR
   \   000270   F9           MOV     R1,A
   \   000271   EA           MOV     A,R2
   \   000272   2400         ADD     A,#0x0
   \   000274   F5..         MOV     ?V0 + 0,A
   \   000276   E4           CLR     A
   \   000277   39           ADDC    A,R1
   \   000278   F5..         MOV     ?V0 + 1,A
   \   00027A   7402         MOV     A,#0x2
   \   00027C   78..         MOV     R0,#?V0 + 0
   \   00027E   12....       LCALL   ?US_SHR
   \   000281   AC..         MOV     R4,?V0 + 0
   \   000283   AD..         MOV     R5,?V0 + 1
   \   000285   7B32         MOV     R3,#0x32
   \   000287   7A04         MOV     R2,#0x4
   \   000289   7908         MOV     R1,#0x8
   \   00028B   12....       LCALL   ??HalLedBlink?relay
    669                break;
    670            }
    671          }
   \                     ??SampleApp_MessageMSGCB_0:
   \   00028E   7468         MOV     A,#0x68
   \   000290   12....       LCALL   ?DEALLOC_XSTACK8
   \   000293   02....       LJMP    ?Subroutine0 & 0xFFFF

   \                                 In  segment BANKED_CODE, align 1, keep-with-next
   \                     ?Subroutine20:
   \   000000   AA82         MOV     R2,DPL
   \   000002   AB83         MOV     R3,DPH
   \   000004   12....       LCALL   ??sprintf?relay
   \   000007   7402         MOV     A,#0x2
   \   000009   22           RET

   \                                 In  segment BANKED_CODE, align 1, keep-with-next
   \                     ?Subroutine19:
   \   000000   12....       LCALL   ??get_data?relay
   \   000003   7402         MOV     A,#0x2
   \   000005   22           RET

   \                                 In  segment BANKED_CODE, align 1, keep-with-next
   \                     ?Subroutine18:
   \   000000   E582         MOV     A,DPL
   \   000002   28           ADD     A,R0
   \   000003   F8           MOV     R0,A
   \   000004   E583         MOV     A,DPH
   \   000006   39           ADDC    A,R1
   \   000007   F9           MOV     R1,A
   \   000008   E8           MOV     A,R0
   \   000009   22           RET

   \                                 In  segment BANKED_CODE, align 1, keep-with-next
   \                     ?Subroutine16:
   \   000000   AA82         MOV     R2,DPL
   \   000002   AB83         MOV     R3,DPH
   \   000004   12....       LCALL   ??HalLcdWriteString?relay
   \   000007                ; Setup parameters for call to function memset
   \   000007                ; Setup parameters for call to function memset
   \   000007                ; Setup parameters for call to function memset
   \   000007   75..20       MOV     ?V0 + 0,#0x20
   \   00000A   75..00       MOV     ?V0 + 1,#0x0
   \   00000D   78..         MOV     R0,#?V0 + 0
   \   00000F   22           RET

   \                                 In  segment BANKED_CODE, align 1, keep-with-next
   \                     ?Subroutine14:
   \   000000   E5..         MOV     A,?V0 + 0
   \   000002   2421         ADD     A,#0x21
   \   000004   F582         MOV     DPL,A
   \   000006   E5..         MOV     A,?V0 + 1
   \   000008   3400         ADDC    A,#0x0
   \   00000A   F583         MOV     DPH,A
   \   00000C   E0           MOVX    A,@DPTR
   \   00000D   22           RET

   \                                 In  segment BANKED_CODE, align 1, keep-with-next
   \                     ?Subroutine11:
   \   000000   8E82         MOV     DPL,R6
   \   000002   8F83         MOV     DPH,R7
   \   000004   E0           MOVX    A,@DPTR
   \   000005   2401         ADD     A,#0x1
   \   000007   F5..         MOV     ?V0 + 0,A
   \   000009   A3           INC     DPTR
   \   00000A   E0           MOVX    A,@DPTR
   \   00000B   3400         ADDC    A,#0x0
   \   00000D   F5..         MOV     ?V0 + 1,A
   \   00000F   78..         MOV     R0,#?V0 + 0
   \   000011   22           RET

   \                                 In  segment BANKED_CODE, align 1, keep-with-next
   \                     ?Subroutine3:
   \   000000   F0           MOVX    @DPTR,A
   \   000001   8E82         MOV     DPL,R6
   \   000003   8F83         MOV     DPH,R7
   \   000005   E0           MOVX    A,@DPTR
   \   000006   F8           MOV     R0,A
   \   000007   A3           INC     DPTR
   \   000008   E0           MOVX    A,@DPTR
   \   000009   F9           MOV     R1,A
   \   00000A   7422         MOV     A,#0x22
   \   00000C   22           RET

   \                                 In  segment BANKED_CODE, align 1, keep-with-next
   \                     ??Subroutine27_0:
   \   000000   12....       LCALL   ??HalUARTWrite?relay
   \   000003   90....       MOV     DPTR,#flat
   \   000006   22           RET

   \                                 In  segment BANKED_CODE, align 1, keep-with-next
   \                     ?Subroutine7:
   \   000000   7900         MOV     R1,#0x0
   \   000002   12....       LCALL   ??HalUARTWrite?relay
   \   000005                ; Setup parameters for call to function HalUARTWrite
   \   000005                ; Setup parameters for call to function HalUARTWrite
   \   000005   7C01         MOV     R4,#0x1
   \   000007   7D00         MOV     R5,#0x0
   \   000009   7A..         MOV     R2,#`?<Constant "\\000">` & 0xff
   \   00000B   7B..         MOV     R3,#(`?<Constant "\\000">` >> 8) & 0xff
   \   00000D   7900         MOV     R1,#0x0
   \   00000F   22           RET
    672          
    673          /*********************************************************************
    674           * @fn      SampleApp_SendPeriodicMessage
    675           *
    676           * @brief   Send the periodic message.
    677           *
    678           * @param   none
    679           *
    680           * @return  none
    681           */

   \                                 In  segment BANKED_CODE, align 1, keep-with-next
    682          void SampleApp_SendPeriodicMessage( void )
   \                     SampleApp_SendPeriodicMessage:
    683          {
   \   000000   74F6         MOV     A,#-0xa
   \   000002   12....       LCALL   ?BANKED_ENTER_XDATA
   \   000005                ; Saved register size: 10
   \   000005                ; Auto size: 0
    684           
    685            if ( AF_DataRequest( &SampleApp_Periodic_DstAddr, &SampleApp_epDesc,
    686                                 SAMPLEAPP_PERIODIC_CLUSTERID,
    687                                 1,
    688                                 (uint8*)&SampleAppPeriodicCounter,
    689                                 &SampleApp_TransID,
    690                                 AF_DISCV_ROUTE,
    691                                 AF_DEFAULT_RADIUS ) == afStatus_SUCCESS )
   \   000005                ; Setup parameters for call to function AF_DataRequest
   \   000005   75..1E       MOV     ?V0 + 0,#0x1e
   \   000008   78..         MOV     R0,#?V0 + 0
   \   00000A   12....       LCALL   ?PUSH_XSTACK_I_ONE
   \   00000D   75....       MOV     ?V0 + 0,#SampleApp_TransID & 0xff
   \   000010   75....       MOV     ?V0 + 1,#(SampleApp_TransID >> 8) & 0xff
   \   000013   78..         MOV     R0,#?V0 + 0
   \   000015   12....       LCALL   ?PUSH_XSTACK_I_TWO
   \   000018   75....       MOV     ?V0 + 0,#SampleAppPeriodicCounter & 0xff
   \   00001B   75....       MOV     ?V0 + 1,#(SampleAppPeriodicCounter >> 8) & 0xff
   \   00001E   78..         MOV     R0,#?V0 + 0
   \   000020   12....       LCALL   ?PUSH_XSTACK_I_TWO
   \   000023   75..01       MOV     ?V0 + 0,#0x1
   \   000026   75..00       MOV     ?V0 + 1,#0x0
   \   000029   78..         MOV     R0,#?V0 + 0
   \   00002B   12....       LCALL   ?PUSH_XSTACK_I_TWO
   \   00002E   78..         MOV     R0,#?V0 + 0
   \   000030   12....       LCALL   ?PUSH_XSTACK_I_TWO
   \   000033   7920         MOV     R1,#0x20
   \   000035   7C..         MOV     R4,#SampleApp_epDesc & 0xff
   \   000037   7D..         MOV     R5,#(SampleApp_epDesc >> 8) & 0xff
   \   000039   7A..         MOV     R2,#SampleApp_Periodic_DstAddr & 0xff
   \   00003B   7B..         MOV     R3,#(SampleApp_Periodic_DstAddr >> 8) & 0xff
   \   00003D   12....       LCALL   ??AF_DataRequest?relay
   \   000040   7409         MOV     A,#0x9
   \   000042   80..         SJMP    ??Subroutine25_0
    692            {
    693            }
    694            else
    695            {
    696              // Error occurred in request to send.
    697            }
    698          }
    699          
    700          /*********************************************************************
    701           * @fn      SampleApp_SendFlashMessage
    702           *
    703           * @brief   Send the flash message to group 1.
    704           *
    705           * @param   flashTime - in milliseconds
    706           *
    707           * @return  none
    708           */

   \                                 In  segment BANKED_CODE, align 1, keep-with-next
    709          void SampleApp_SendFlashMessage( uint16 flashTime )
   \                     SampleApp_SendFlashMessage:
    710          {
   \   000000   74F6         MOV     A,#-0xa
   \   000002   12....       LCALL   ?BANKED_ENTER_XDATA
   \   000005                ; Saved register size: 10
   \   000005                ; Auto size: 3
   \   000005   74FD         MOV     A,#-0x3
   \   000007   12....       LCALL   ?ALLOC_XSTACK8
    711            uint8 buffer[3];
    712            buffer[0] = (uint8)(SampleAppFlashCounter++);
   \   00000A   90....       MOV     DPTR,#SampleAppFlashCounter
   \   00000D   E0           MOVX    A,@DPTR
   \   00000E   85..82       MOV     DPL,?XSP + 0
   \   000011   85..83       MOV     DPH,?XSP + 1
   \   000014   F0           MOVX    @DPTR,A
   \   000015   90....       MOV     DPTR,#SampleAppFlashCounter
   \   000018   E0           MOVX    A,@DPTR
   \   000019   04           INC     A
   \   00001A   F0           MOVX    @DPTR,A
    713            buffer[1] = LO_UINT16( flashTime );
   \   00001B   7401         MOV     A,#0x1
   \   00001D   12....       LCALL   ?XSTACK_DISP0_8
   \   000020   EA           MOV     A,R2
   \   000021   F0           MOVX    @DPTR,A
    714            buffer[2] = HI_UINT16( flashTime );
   \   000022   7402         MOV     A,#0x2
   \   000024   12....       LCALL   ?XSTACK_DISP0_8
   \   000027   EB           MOV     A,R3
   \   000028   F0           MOVX    @DPTR,A
    715          
    716            if ( AF_DataRequest( &SampleApp_Flash_DstAddr, &SampleApp_epDesc,
    717                                 SAMPLEAPP_FLASH_CLUSTERID,
    718                                 3,
    719                                 buffer,
    720                                 &SampleApp_TransID,
    721                                 AF_DISCV_ROUTE,
    722                                 AF_DEFAULT_RADIUS ) == afStatus_SUCCESS )
   \   000029                ; Setup parameters for call to function AF_DataRequest
   \   000029   75..1E       MOV     ?V0 + 0,#0x1e
   \   00002C   78..         MOV     R0,#?V0 + 0
   \   00002E   12....       LCALL   ?PUSH_XSTACK_I_ONE
   \   000031   75....       MOV     ?V0 + 0,#SampleApp_TransID & 0xff
   \   000034   75....       MOV     ?V0 + 1,#(SampleApp_TransID >> 8) & 0xff
   \   000037   78..         MOV     R0,#?V0 + 0
   \   000039   12....       LCALL   ?PUSH_XSTACK_I_TWO
   \   00003C   7403         MOV     A,#0x3
   \   00003E   12....       LCALL   ?XSTACK_DISP0_8
   \   000041   8582..       MOV     ?V0 + 0,DPL
   \   000044   8583..       MOV     ?V0 + 1,DPH
   \   000047   78..         MOV     R0,#?V0 + 0
   \   000049   12....       LCALL   ?PUSH_XSTACK_I_TWO
   \   00004C   75..03       MOV     ?V0 + 0,#0x3
   \   00004F   75..00       MOV     ?V0 + 1,#0x0
   \   000052   78..         MOV     R0,#?V0 + 0
   \   000054   12....       LCALL   ?PUSH_XSTACK_I_TWO
   \   000057   75..02       MOV     ?V0 + 0,#0x2
   \   00005A   78..         MOV     R0,#?V0 + 0
   \   00005C   12....       LCALL   ?PUSH_XSTACK_I_TWO
   \   00005F   7920         MOV     R1,#0x20
   \   000061   7C..         MOV     R4,#SampleApp_epDesc & 0xff
   \   000063   7D..         MOV     R5,#(SampleApp_epDesc >> 8) & 0xff
   \   000065   7A..         MOV     R2,#SampleApp_Flash_DstAddr & 0xff
   \   000067   7B..         MOV     R3,#(SampleApp_Flash_DstAddr >> 8) & 0xff
   \   000069   12....       LCALL   ??AF_DataRequest?relay
   \   00006C   7409         MOV     A,#0x9
   \   00006E   12....       LCALL   ?DEALLOC_XSTACK8
    723            {
    724            }
    725            else
    726            {
    727              // Error occurred in request to send.
    728            }
    729          }
   \   000071   7403         MOV     A,#0x3
   \   000073   80..         SJMP    ??Subroutine25_0
    730          
    731          //读取MQ2传感器数据

   \                                 In  segment XDATA_Z, align 1, keep-with-next
    732          unsigned char TxBuf[40];
   \                     TxBuf:
   \   000000                DS 40
   \   000028                REQUIRE __INIT_XDATA_Z

   \                                 In  segment XDATA_Z, align 1, keep-with-next
    733          uint16 GasData;
   \                     GasData:
   \   000000                DS 2
   \   000002                REQUIRE __INIT_XDATA_Z

   \                                 In  segment BANKED_CODE, align 1, keep-with-next
    734          uint16 ReadGasData(void)
   \                     ReadGasData:
    735          {
   \   000000                ; Saved register size: 0
   \   000000                ; Auto size: 0
    736            uint16 reading = 0;
    737            
    738            /* Enable channel */
    739            ADCCFG |= 0x40;
   \   000000   43F240       ORL     0xf2,#0x40
    740            
    741            /* writing to this register starts the extra conversion */
    742            ADCCON3 = 0x86;// AVDD5 引脚  00： 64 抽取率(7 位ENOB)  0110： AIN6
   \   000003   75B686       MOV     0xb6,#-0x7a
    743            
    744            /* Wait for the conversion to be done */
    745            while (!(ADCCON1 & 0x80));
   \                     ??ReadGasData_0:
   \   000006   E5B4         MOV     A,0xb4
   \   000008   A2E7         MOV     C,0xE0 /* A   */.7
   \   00000A   50FA         JNC     ??ReadGasData_0
    746            
    747            /* Disable channel after done conversion */
    748            ADCCFG &= (0x40 ^ 0xFF); //按位异或。如1010^1111=0101（二进制）
   \   00000C   53F2BF       ANL     0xf2,#0xbf
    749            
    750            /* Read the result */
    751            reading = ADCL;
   \   00000F   E5BA         MOV     A,0xba
    752            reading |= (int16) (ADCH << 8); 
    753            
    754            reading >>= 8;
    755            
    756            return (reading);
   \   000011   E5BB         MOV     A,0xbb
   \   000013   FA           MOV     R2,A
   \   000014   E4           CLR     A
   \   000015   FB           MOV     R3,A
   \   000016   02....       LJMP    ?BRET
   \   000019                REQUIRE ADCCFG
   \   000019                REQUIRE ADCCON3
   \   000019                REQUIRE ADCCON1
   \   000019                REQUIRE ADCL
   \   000019                REQUIRE ADCH
    757          }
    758          //复位WiFi模块函数

   \                                 In  segment BANKED_CODE, align 1, keep-with-next
    759          void ReSetWifi(void)
   \                     ReSetWifi:
    760          {
   \   000000   C082         PUSH    DPL
   \   000002   C083         PUSH    DPH
   \   000004                ; Saved register size: 2
   \   000004                ; Auto size: 0
    761            P0DIR |= 0x40;                  //P0.6定义为输出
   \   000004   43FD40       ORL     0xfd,#0x40
    762            WIFIRESET = 0;                  //低电平复位---------------------
   \   000007   C286         CLR     0x80.6
    763            Delay_ms(500);
   \   000009                ; Setup parameters for call to function Delay_ms
   \   000009   7AF4         MOV     R2,#-0xc
   \   00000B   7B01         MOV     R3,#0x1
   \   00000D   12....       LCALL   ??Delay_ms?relay
    764            WIFIRESET = 1;                  //高电平工作------------
   \   000010   D286         SETB    0x80.6
    765             Delay_ms(500);
   \   000012                ; Setup parameters for call to function Delay_ms
   \   000012   7AF4         MOV     R2,#-0xc
   \   000014   7B01         MOV     R3,#0x1
   \   000016   12....       LCALL   ??Delay_ms?relay
    766          }
   \   000019                REQUIRE ?Subroutine2
   \   000019                REQUIRE P0DIR
   \   000019                REQUIRE _A_P0
   \   000019                ; // Fall through to label ?Subroutine2

   \                                 In  segment BANKED_CODE, align 1, keep-with-next
   \                     ?Subroutine2:
   \   000000   D083         POP     DPH
   \   000002   D082         POP     DPL
   \   000004   02....       LJMP    ?BRET
    767          
    768          //串口接收数据处理函数

   \                                 In  segment BANKED_CODE, align 1, keep-with-next
    769          void USART_Receive_messege(mtOSALSerialData_t *MSGpkt)
   \                     USART_Receive_messege:
    770          {
   \   000000   74F6         MOV     A,#-0xa
   \   000002   12....       LCALL   ?BANKED_ENTER_XDATA
   \   000005                ; Saved register size: 10
   \   000005                ; Auto size: 135
   \   000005   7479         MOV     A,#0x79
   \   000007   12....       LCALL   ?ALLOC_XSTACK8
    771            
    772             //HalUARTWrite(0, "ZIGBEE-WIFI OK8\r\n", 17);
    773              char nn[100];  //mqtt连接缓存
    774               char disbuf[32];
                           ^
Warning[Pe177]: variable "disbuf" was declared but never referenced
    775               int i;
    776               //MQTT连接指令                       
    777              unsigned char concmd[]={0x10,0x21,0x00,0x04,0x4D,0x51,0x54,0x54,0x04,0xC0,0x00,0x78,0x00,0x0A,0x31,0x30,0x37,0x39,0x39,0x36,0x38,0x39,0x34,0x37,0x00,0x06,0x35,0x39,0x30,0x39,0x34,0x35,0x00,0x01,0x32};
   \   00000A   85..82       MOV     DPL,?XSP + 0
   \   00000D   85..83       MOV     DPH,?XSP + 1
   \   000010   AC82         MOV     R4,DPL
   \   000012   AD83         MOV     R5,DPH
   \   000014   7583..       MOV     DPH,#(`?<Constant {16, 33, 0, 4, 77, 81, 84, 84, 4, 1` >> 8) & 0xff
   \   000017   7582..       MOV     DPL,#`?<Constant {16, 33, 0, 4, 77, 81, 84, 84, 4, 1` & 0xff
   \   00001A   7423         MOV     A,#0x23
   \   00001C   12....       LCALL   ?MOVE_LONG8_XDATA_XDATA
    778              mtOSALSerialData_t *p =MSGpkt;
    779            
    780              if(flat==7) //收到WIFI和平台交互数据
   \   00001F   EA           MOV     A,R2
   \   000020   2402         ADD     A,#0x2
   \   000022   F8           MOV     R0,A
   \   000023   EB           MOV     A,R3
   \   000024   3400         ADDC    A,#0x0
   \   000026   F9           MOV     R1,A
   \   000027   E8           MOV     A,R0
   \   000028   FE           MOV     R6,A
   \   000029   E9           MOV     A,R1
   \   00002A   FF           MOV     R7,A
   \   00002B   90....       MOV     DPTR,#flat
   \   00002E   E0           MOVX    A,@DPTR
   \   00002F   6407         XRL     A,#0x7
   \   000031   6003         JZ      $+5
   \   000033   02....       LJMP    ??USART_Receive_messege_0 & 0xFFFF
    781              
    782                if(con_succ==0 && p->msg[0]>1){
   \   000036   8E82         MOV     DPL,R6
   \   000038   8F83         MOV     DPH,R7
   \   00003A   E0           MOVX    A,@DPTR
   \   00003B   F8           MOV     R0,A
   \   00003C   A3           INC     DPTR
   \   00003D   E0           MOVX    A,@DPTR
   \   00003E   F9           MOV     R1,A
   \   00003F   90....       MOV     DPTR,#con_succ
   \   000042   E0           MOVX    A,@DPTR
   \   000043   7038         JNZ     ??USART_Receive_messege_1
   \   000045   8882         MOV     DPL,R0
   \   000047   8983         MOV     DPH,R1
   \   000049   E0           MOVX    A,@DPTR
   \   00004A   C3           CLR     C
   \   00004B   9402         SUBB    A,#0x2
   \   00004D   402E         JC      ??USART_Receive_messege_1
    783                  if(p->msg[1]==0x20 && p->msg[2]==0x02) 
   \   00004F   A3           INC     DPTR
   \   000050   E0           MOVX    A,@DPTR
   \   000051   6420         XRL     A,#0x20
   \   000053   7016         JNZ     ??USART_Receive_messege_2
   \   000055   8882         MOV     DPL,R0
   \   000057   8983         MOV     DPH,R1
   \   000059   A3           INC     DPTR
   \   00005A   A3           INC     DPTR
   \   00005B   E0           MOVX    A,@DPTR
   \   00005C   6402         XRL     A,#0x2
   \   00005E   700B         JNZ     ??USART_Receive_messege_2
    784                  {
    785                      con_succ=1;
   \   000060   90....       MOV     DPTR,#con_succ
   \   000063   7401         MOV     A,#0x1
   \   000065   F0           MOVX    @DPTR,A
    786                      sub_msg();
   \   000066                ; Setup parameters for call to function sub_msg
   \   000066   12....       LCALL   ??sub_msg?relay
   \   000069   8078         SJMP    ??USART_Receive_messege_0
    787                  }
    788                  else 
    789                    HalUARTWrite(1,concmd,35);
   \                     ??USART_Receive_messege_2:
   \   00006B                ; Setup parameters for call to function HalUARTWrite
   \   00006B   7C23         MOV     R4,#0x23
   \   00006D   7D00         MOV     R5,#0x0
   \   00006F   85..82       MOV     DPL,?XSP + 0
   \   000072   85..83       MOV     DPH,?XSP + 1
   \   000075   AA82         MOV     R2,DPL
   \   000077   AB83         MOV     R3,DPH
   \   000079   7901         MOV     R1,#0x1
   \   00007B   8063         SJMP    ??CrossCallReturnLabel_8
    790                
    791                }
    792          
    793                else{
    794                  if(p->msg[0]>7){
   \                     ??USART_Receive_messege_1:
   \   00007D   8882         MOV     DPL,R0
   \   00007F   8983         MOV     DPH,R1
   \   000081   E0           MOVX    A,@DPTR
   \   000082   C3           CLR     C
   \   000083   9408         SUBB    A,#0x8
   \   000085   5003         JNC     $+5
   \   000087   02....       LJMP    ??USART_Receive_messege_3 & 0xFFFF
    795                    if(p->msg[1]==0x30 && p->msg[5]=='m' && p->msg[6]=='s' && p->msg[7]=='g')
   \   00008A   A3           INC     DPTR
   \   00008B   E0           MOVX    A,@DPTR
   \   00008C   6430         XRL     A,#0x30
   \   00008E   6003         JZ      $+5
   \   000090   02....       LJMP    ??USART_Receive_messege_3 & 0xFFFF
   \   000093   8882         MOV     DPL,R0
   \   000095   8983         MOV     DPH,R1
   \   000097   A3           INC     DPTR
   \   000098   A3           INC     DPTR
   \   000099   A3           INC     DPTR
   \   00009A   A3           INC     DPTR
   \   00009B   A3           INC     DPTR
   \   00009C   E0           MOVX    A,@DPTR
   \   00009D   646D         XRL     A,#0x6d
   \   00009F   6003         JZ      $+5
   \   0000A1   02....       LJMP    ??USART_Receive_messege_3 & 0xFFFF
   \   0000A4   8882         MOV     DPL,R0
   \   0000A6   8983         MOV     DPH,R1
   \   0000A8   A3           INC     DPTR
   \   0000A9   A3           INC     DPTR
   \   0000AA   A3           INC     DPTR
   \   0000AB   A3           INC     DPTR
   \   0000AC   A3           INC     DPTR
   \   0000AD   A3           INC     DPTR
   \   0000AE   E0           MOVX    A,@DPTR
   \   0000AF   6473         XRL     A,#0x73
   \   0000B1   6003         JZ      $+5
   \   0000B3   02....       LJMP    ??USART_Receive_messege_3 & 0xFFFF
   \   0000B6   8882         MOV     DPL,R0
   \   0000B8   8983         MOV     DPH,R1
   \   0000BA   A3           INC     DPTR
   \   0000BB   A3           INC     DPTR
   \   0000BC   A3           INC     DPTR
   \   0000BD   A3           INC     DPTR
   \   0000BE   A3           INC     DPTR
   \   0000BF   A3           INC     DPTR
   \   0000C0   A3           INC     DPTR
   \   0000C1   E0           MOVX    A,@DPTR
   \   0000C2   6467         XRL     A,#0x67
   \   0000C4   6003         JZ      $+5
   \   0000C6   02....       LJMP    ??USART_Receive_messege_3 & 0xFFFF
    796                      {
    797                        HalUARTWrite(0,(unsigned char*)(&p->msg[8]), p->msg[0]-7);
   \   0000C9                ; Setup parameters for call to function HalUARTWrite
   \   0000C9   8882         MOV     DPL,R0
   \   0000CB   8983         MOV     DPH,R1
   \   0000CD   E0           MOVX    A,@DPTR
   \   0000CE   24F9         ADD     A,#-0x7
   \   0000D0   FC           MOV     R4,A
   \   0000D1   E4           CLR     A
   \   0000D2   34FF         ADDC    A,#-0x1
   \   0000D4   FD           MOV     R5,A
   \   0000D5   E8           MOV     A,R0
   \   0000D6   2408         ADD     A,#0x8
   \   0000D8   FA           MOV     R2,A
   \   0000D9   E9           MOV     A,R1
   \   0000DA   3400         ADDC    A,#0x0
   \   0000DC   FB           MOV     R3,A
   \   0000DD   12....       LCALL   ?Subroutine7 & 0xFFFF
    798                          HalUARTWrite(0,"\0",1);
    799                         // Sethour=get_data("hour",(char*)(&p->msg[8]), p->msg[0]-7);
    800                       //  Setmiunte=get_data("minute",(char*)(&p->msg[8]), p->msg[0]-7);
    801                         //sprintf(disbuf,"hour:%d,minu:%d",Sethour,Setmiunte);
    802                         
    803                          //LCD_CLS();
    804                          //HalLcdWriteString(disbuf,HAL_LCD_LINE_4);
    805                      }
    806                  
    807                  
    808                  }
    809                    
    810                
    811                }
   \                     ??CrossCallReturnLabel_8:
   \   0000E0   12....       LCALL   ??HalUARTWrite?relay
    812                
    813                
    814                //HalUARTWrite(0,(uint8 *)(&p->msg[1]), p->msg[0]);
    815              if(flat==1) //发AT命令
   \                     ??USART_Receive_messege_0:
   \   0000E3   7C..         MOV     R4,#`?<Constant "OK">` & 0xff
   \   0000E5   7D..         MOV     R5,#(`?<Constant "OK">` >> 8) & 0xff
   \   0000E7   90....       MOV     DPTR,#flat
   \   0000EA   E0           MOVX    A,@DPTR
   \   0000EB   6401         XRL     A,#0x1
   \   0000ED   702F         JNZ     ??USART_Receive_messege_4
    816              {
    817                // HalUARTWrite(1,(unsigned char*)(&p->msg[1]), p->msg[0]);
    818                 //HalUARTWrite(0,(uint8 *)(&p->msg[1]), p->msg[0]);
    819                 if(strstr((char const *)(&p->msg[1]),"OK"))
   \   0000EF                ; Setup parameters for call to function strstr
   \   0000EF   12....       LCALL   ?Subroutine10 & 0xFFFF
   \                     ??CrossCallReturnLabel_11:
   \   0000F2   6018         JZ      ??USART_Receive_messege_5
    820                 {
    821                    HalUARTWrite(1,CWMODE_C,strlen(CWMODE_C));
   \   0000F4                ; Setup parameters for call to function HalUARTWrite
   \   0000F4   7C0D         MOV     R4,#0xd
   \   0000F6   7D00         MOV     R5,#0x0
   \   0000F8   7A..         MOV     R2,#`?<Constant "AT+CWMODE=3\\r\\n">` & 0xff
   \   0000FA   7B..         MOV     R3,#(`?<Constant "AT+CWMODE=3\\r\\n">` >> 8) & 0xff
   \   0000FC   12....       LCALL   ?Subroutine9 & 0xFFFF
    822                    
    823                    flat=2;
   \                     ??CrossCallReturnLabel_60:
   \   0000FF   7402         MOV     A,#0x2
   \                     ??USART_Receive_messege_6:
   \   000101   F0           MOVX    @DPTR,A
    824                    Delay_ms(500);
   \   000102                ; Setup parameters for call to function Delay_ms
   \   000102   7AF4         MOV     R2,#-0xc
   \   000104   7B01         MOV     R3,#0x1
   \                     ??USART_Receive_messege_7:
   \   000106   12....       LCALL   ??Delay_ms?relay
   \   000109   02....       LJMP    ??USART_Receive_messege_3 & 0xFFFF
    825                 }
    826                  else if(strstr((char const *)(&p->msg[1]),"ERROR"))  //失败就重启
   \                     ??USART_Receive_messege_5:
   \   00010C                ; Setup parameters for call to function strstr
   \   00010C   7C..         MOV     R4,#`?<Constant "ERROR">` & 0xff
   \   00010E   7D..         MOV     R5,#(`?<Constant "ERROR">` >> 8) & 0xff
   \   000110   12....       LCALL   ?Subroutine10 & 0xFFFF
   \                     ??CrossCallReturnLabel_12:
   \   000113   7003         JNZ     $+5
   \   000115   02....       LJMP    ??USART_Receive_messege_3 & 0xFFFF
    827                 {
    828                    ReSetWifi();//重启WiFi
   \                     ??USART_Receive_messege_8:
   \   000118                ; Setup parameters for call to function ReSetWifi
   \   000118   12....       LCALL   ?Subroutine8 & 0xFFFF
    829                    Delay_ms(1000);
    830                    HalUARTWrite(1,"AT\r\n",4);
    831                    flat=1;    
    832                 }
    833              }
   \                     ??CrossCallReturnLabel_10:
   \   00011B   02....       LJMP    ??USART_Receive_messege_3 & 0xFFFF
    834               else if(flat==2) //链接WiFi
   \                     ??USART_Receive_messege_4:
   \   00011E   E0           MOVX    A,@DPTR
   \   00011F   6402         XRL     A,#0x2
   \   000121   6003         JZ      $+5
   \   000123   02....       LJMP    ??USART_Receive_messege_9 & 0xFFFF
    835              {
    836                 if(strstr((char const *)(&p->msg[1]),"OK"))
   \   000126                ; Setup parameters for call to function strstr
   \   000126   12....       LCALL   ?Subroutine10 & 0xFFFF
   \                     ??CrossCallReturnLabel_13:
   \   000129   7003         JNZ     $+5
   \   00012B   02....       LJMP    ??USART_Receive_messege_3 & 0xFFFF
    837                 {
    838                    memset(nn,0,100);
   \   00012E                ; Setup parameters for call to function memset
   \   00012E   75..64       MOV     ?V0 + 0,#0x64
   \   000131   75..00       MOV     ?V0 + 1,#0x0
   \   000134   78..         MOV     R0,#?V0 + 0
   \   000136   12....       LCALL   ?PUSH_XSTACK_I_TWO
   \   000139   7C00         MOV     R4,#0x0
   \   00013B   7D00         MOV     R5,#0x0
   \   00013D   7425         MOV     A,#0x25
   \   00013F   12....       LCALL   ?XSTACK_DISP0_8
   \   000142   12....       LCALL   ?Subroutine12 & 0xFFFF
   \                     ??CrossCallReturnLabel_29:
   \   000145   12....       LCALL   ?DEALLOC_XSTACK8
    839                    sprintf(nn,"AT+CWJAP= \"%s\",\"%s\"\r\n",LYSSID,LYPASSWD);
   \   000148                ; Setup parameters for call to function sprintf
   \   000148   75....       MOV     ?V0 + 0,#`?<Constant "15876376419">` & 0xff
   \   00014B   75....       MOV     ?V0 + 1,#(`?<Constant "15876376419">` >> 8) & 0xff
   \   00014E   78..         MOV     R0,#?V0 + 0
   \   000150   12....       LCALL   ?PUSH_XSTACK_I_TWO
   \   000153   75....       MOV     ?V0 + 0,#`?<Constant "Redmi_K40">` & 0xff
   \   000156   75....       MOV     ?V0 + 1,#(`?<Constant "Redmi_K40">` >> 8) & 0xff
   \   000159   78..         MOV     R0,#?V0 + 0
   \   00015B   12....       LCALL   ?PUSH_XSTACK_I_TWO
   \   00015E   7C..         MOV     R4,#`?<Constant "AT+CWJAP= \\"%s\\",\\"%s\\"\\r\\n">` & 0xff
   \   000160   7D..         MOV     R5,#(`?<Constant "AT+CWJAP= \\"%s\\",\\"%s\\"\\r\\n">` >> 8) & 0xff
   \   000162   7427         MOV     A,#0x27
   \   000164   12....       LCALL   ?XSTACK_DISP0_8
   \   000167   AA82         MOV     R2,DPL
   \   000169   AB83         MOV     R3,DPH
   \   00016B   12....       LCALL   ??sprintf?relay
   \   00016E   7404         MOV     A,#0x4
   \   000170   12....       LCALL   ?DEALLOC_XSTACK8
    840                    HalUARTWrite(1,(unsigned char*)nn, strlen(nn));//连接本地WiFi
   \   000173                ; Setup parameters for call to function HalUARTWrite
   \   000173                ; Setup parameters for call to function strlen
   \   000173   7423         MOV     A,#0x23
   \   000175   12....       LCALL   ?XSTACK_DISP0_8
   \   000178   AA82         MOV     R2,DPL
   \   00017A   AB83         MOV     R3,DPH
   \   00017C   12....       LCALL   ??strlen?relay
   \   00017F   EA           MOV     A,R2
   \   000180   FC           MOV     R4,A
   \   000181   EB           MOV     A,R3
   \   000182   FD           MOV     R5,A
   \   000183   7423         MOV     A,#0x23
   \   000185   12....       LCALL   ?XSTACK_DISP0_8
   \   000188   AA82         MOV     R2,DPL
   \   00018A   AB83         MOV     R3,DPH
   \   00018C   7901         MOV     R1,#0x1
   \   00018E   12....       LCALL   ??HalUARTWrite?relay
    841                    //显示连接路由
    842                    LCD_CLS();
   \   000191                ; Setup parameters for call to function LCD_CLS
   \   000191   12....       LCALL   ??LCD_CLS?relay
    843                    for(i=0; i<2; i++){
   \   000194   7E00         MOV     R6,#0x0
   \   000196   7F00         MOV     R7,#0x0
    844                      LCD_P16x16Ch(16*i, 0, i+4);
   \                     ??USART_Receive_messege_10:
   \   000198                ; Setup parameters for call to function LCD_P16x16Ch
   \   000198   EE           MOV     A,R6
   \   000199   2404         ADD     A,#0x4
   \   00019B   FB           MOV     R3,A
   \   00019C   7A00         MOV     R2,#0x0
   \   00019E   12....       LCALL   ?Subroutine13 & 0xFFFF
    845                     }
   \                     ??CrossCallReturnLabel_30:
   \   0001A1   40F5         JC      ??USART_Receive_messege_10
    846                     for(i=2; i<5; i++){
   \   0001A3   7E02         MOV     R6,#0x2
   \   0001A5   7F00         MOV     R7,#0x0
    847                      LCD_P16x16Ch(16*i, 0, i+6);
   \                     ??USART_Receive_messege_11:
   \   0001A7                ; Setup parameters for call to function LCD_P16x16Ch
   \   0001A7   EE           MOV     A,R6
   \   0001A8   2406         ADD     A,#0x6
   \   0001AA   FB           MOV     R3,A
   \   0001AB   7A00         MOV     R2,#0x0
   \   0001AD   12....       LCALL   ?Subroutine17 & 0xFFFF
    848                     }
   \                     ??CrossCallReturnLabel_39:
   \   0001B0   9405         SUBB    A,#0x5
   \   0001B2   12....       LCALL   ?Subroutine22 & 0xFFFF
   \                     ??CrossCallReturnLabel_54:
   \   0001B5   40F0         JC      ??USART_Receive_messege_11
    849                    flat=3;
   \   0001B7   90....       MOV     DPTR,#flat
   \   0001BA   7403         MOV     A,#0x3
   \   0001BC   F0           MOVX    @DPTR,A
    850                    Delay_ms(1000);Delay_ms(1000);
   \   0001BD                ; Setup parameters for call to function Delay_ms
   \   0001BD   7AE8         MOV     R2,#-0x18
   \   0001BF   FB           MOV     R3,A
   \   0001C0   12....       LCALL   ??Delay_ms?relay
   \   0001C3                ; Setup parameters for call to function Delay_ms
   \                     ??USART_Receive_messege_12:
   \   0001C3   7AE8         MOV     R2,#-0x18
   \   0001C5   7B03         MOV     R3,#0x3
   \   0001C7   12....       LCALL   ??Delay_ms?relay
    851                    Delay_ms(1000);
   \   0001CA                ; Setup parameters for call to function Delay_ms
   \   0001CA   7AE8         MOV     R2,#-0x18
   \   0001CC   7B03         MOV     R3,#0x3
   \   0001CE   12....       LCALL   ??Delay_ms?relay
    852                    Delay_ms(1000);
   \   0001D1                ; Setup parameters for call to function Delay_ms
   \   0001D1   7AE8         MOV     R2,#-0x18
   \   0001D3   7B03         MOV     R3,#0x3
   \   0001D5   02....       LJMP    ??USART_Receive_messege_7 & 0xFFFF
    853                 }
    854              }
    855               else if(flat==3) //链接服务器
   \                     ??USART_Receive_messege_9:
   \   0001D8   E0           MOVX    A,@DPTR
   \   0001D9   6403         XRL     A,#0x3
   \   0001DB   7033         JNZ     ??USART_Receive_messege_13
    856              {
    857              
    858                   HalUARTWrite(1,CIPSTART_C, strlen(CIPSTART_C));//连接服务器
   \   0001DD                ; Setup parameters for call to function HalUARTWrite
   \   0001DD   7C28         MOV     R4,#0x28
   \   0001DF   7D00         MOV     R5,#0x0
   \   0001E1   7A..         MOV     R2,#`?<Constant "AT+CIPSTART=\\"TCP\\",\\"18...">` & 0xff
   \   0001E3   7B..         MOV     R3,#(`?<Constant "AT+CIPSTART=\\"TCP\\",\\"18...">` >> 8) & 0xff
   \   0001E5   12....       LCALL   ?Subroutine9 & 0xFFFF
    859                   flat=4;
   \                     ??CrossCallReturnLabel_61:
   \   0001E8   7404         MOV     A,#0x4
   \   0001EA   F0           MOVX    @DPTR,A
    860                  // HalLcdWriteString("connect onenet",HAL_LCD_LINE_2);
    861                   //显示连接OneNET中
    862                      for(i=0; i<2; i++){
   \   0001EB   7E00         MOV     R6,#0x0
   \   0001ED   7F00         MOV     R7,#0x0
    863                      LCD_P16x16Ch(16*i, 2, i+4);
   \                     ??USART_Receive_messege_14:
   \   0001EF                ; Setup parameters for call to function LCD_P16x16Ch
   \   0001EF   EE           MOV     A,R6
   \   0001F0   2404         ADD     A,#0x4
   \   0001F2   FB           MOV     R3,A
   \   0001F3   7A02         MOV     R2,#0x2
   \   0001F5   12....       LCALL   ?Subroutine13 & 0xFFFF
    864                     }
   \                     ??CrossCallReturnLabel_31:
   \   0001F8   40F5         JC      ??USART_Receive_messege_14
    865                     LCD_P8x16Str(32, 2,"OneNET");
   \   0001FA                ; Setup parameters for call to function LCD_P8x16Str
   \   0001FA   7C..         MOV     R4,#`?<Constant "OneNET">` & 0xff
   \   0001FC   7D..         MOV     R5,#(`?<Constant "OneNET">` >> 8) & 0xff
   \   0001FE   7A02         MOV     R2,#0x2
   \   000200   7920         MOV     R1,#0x20
   \   000202   12....       LCALL   ??LCD_P8x16Str?relay
    866                      LCD_P16x16Ch(80, 2, 10);
   \   000205                ; Setup parameters for call to function LCD_P16x16Ch
   \   000205   7B0A         MOV     R3,#0xa
   \   000207   7A02         MOV     R2,#0x2
   \   000209   7950         MOV     R1,#0x50
   \   00020B   12....       LCALL   ??LCD_P16x16Ch?relay
    867                     
    868                   Delay_ms(1000);Delay_ms(1000);Delay_ms(1000);
   \   00020E                ; Setup parameters for call to function Delay_ms
   \   00020E   80B3         SJMP    ??USART_Receive_messege_12
    869                
    870                
    871                
    872          
    873              }
    874              else if(flat==4)  //设置透传模式
   \                     ??USART_Receive_messege_13:
   \   000210   E0           MOVX    A,@DPTR
   \   000211   6404         XRL     A,#0x4
   \   000213   7027         JNZ     ??USART_Receive_messege_15
    875              {
    876                 if(strstr((char const *)(&p->msg[1]),"OK"))
   \   000215                ; Setup parameters for call to function strstr
   \   000215   12....       LCALL   ?Subroutine10 & 0xFFFF
   \                     ??CrossCallReturnLabel_14:
   \   000218   7003         JNZ     $+5
   \   00021A   02....       LJMP    ??USART_Receive_messege_8 & 0xFFFF
    877                 {
    878                    HalUARTWrite(1,CIPMODE_C, strlen(CIPMODE_C));//设置透传
   \   00021D                ; Setup parameters for call to function HalUARTWrite
   \   00021D   7C0E         MOV     R4,#0xe
   \   00021F   7D00         MOV     R5,#0x0
   \   000221   7A..         MOV     R2,#`?<Constant "AT+CIPMODE=1\\r\\n">` & 0xff
   \   000223   7B..         MOV     R3,#(`?<Constant "AT+CIPMODE=1\\r\\n">` >> 8) & 0xff
   \   000225   7901         MOV     R1,#0x1
   \   000227   12....       LCALL   ??HalUARTWrite?relay
    879                     HalUARTWrite(0,"cipmode\n", strlen("cipmode\n"));
   \   00022A                ; Setup parameters for call to function HalUARTWrite
   \   00022A   7C08         MOV     R4,#0x8
   \   00022C   7D00         MOV     R5,#0x0
   \   00022E   7A..         MOV     R2,#`?<Constant "cipmode\\n">` & 0xff
   \   000230   7B..         MOV     R3,#(`?<Constant "cipmode\\n">` >> 8) & 0xff
   \   000232   7900         MOV     R1,#0x0
   \   000234   12....       LCALL   ??Subroutine27_0 & 0xFFFF
    880                    flat=5;
    881                   
    882                    Delay_ms(500);
    883                 }
    884                 else 
    885                 {
    886                    ReSetWifi();//重启WiFi
    887                    Delay_ms(1000);
    888                    HalUARTWrite(1,"AT\r\n",4);
    889                    flat=1;    
    890                   // HalUARTWrite(0, "ZIGBEE-WIFI OK6\r\n", 17);
    891                 }
    892              }
   \                     ??CrossCallReturnLabel_63:
   \   000237   7405         MOV     A,#0x5
   \   000239   02....       LJMP    ??USART_Receive_messege_6 & 0xFFFF
    893               else if(flat==5) //发送数据的命令
   \                     ??USART_Receive_messege_15:
   \   00023C   E0           MOVX    A,@DPTR
   \   00023D   6405         XRL     A,#0x5
   \   00023F   7027         JNZ     ??USART_Receive_messege_16
    894              {
    895                 if(strstr((char const *)(&p->msg[1]),"OK"))
   \   000241                ; Setup parameters for call to function strstr
   \   000241   12....       LCALL   ?Subroutine10 & 0xFFFF
   \                     ??CrossCallReturnLabel_15:
   \   000244   7003         JNZ     $+5
   \   000246   02....       LJMP    ??USART_Receive_messege_8 & 0xFFFF
    896                 {
    897                    HalUARTWrite(1,CIPSEND_C, strlen(CIPSEND_C));//发送
   \   000249                ; Setup parameters for call to function HalUARTWrite
   \   000249   7C0C         MOV     R4,#0xc
   \   00024B   7D00         MOV     R5,#0x0
   \   00024D   7A..         MOV     R2,#`?<Constant "AT+CIPSEND\\r\\n">` & 0xff
   \   00024F   7B..         MOV     R3,#(`?<Constant "AT+CIPSEND\\r\\n">` >> 8) & 0xff
   \   000251   7901         MOV     R1,#0x1
   \   000253   12....       LCALL   ??HalUARTWrite?relay
    898                    HalUARTWrite(0,"cipsend\n", strlen("cipsend\n"));
   \   000256                ; Setup parameters for call to function HalUARTWrite
   \   000256   7C08         MOV     R4,#0x8
   \   000258   7D00         MOV     R5,#0x0
   \   00025A   7A..         MOV     R2,#`?<Constant "cipsend\\n">` & 0xff
   \   00025C   7B..         MOV     R3,#(`?<Constant "cipsend\\n">` >> 8) & 0xff
   \   00025E   7900         MOV     R1,#0x0
   \   000260   12....       LCALL   ??Subroutine27_0 & 0xFFFF
    899                    flat=6;
    900                    Delay_ms(500);
    901                   
    902                 }
    903                 else 
    904                 {
    905                    ReSetWifi();//重启WiFi
    906                    Delay_ms(1000);
    907                    HalUARTWrite(1,"AT\r\n",4);
    908                    flat=1;    
    909                 }
    910              }
   \                     ??CrossCallReturnLabel_64:
   \   000263   7406         MOV     A,#0x6
   \   000265   02....       LJMP    ??USART_Receive_messege_6 & 0xFFFF
    911              else if(flat==6)  //准备发送数据到服务器
   \                     ??USART_Receive_messege_16:
   \   000268   E0           MOVX    A,@DPTR
   \   000269   6406         XRL     A,#0x6
   \   00026B   7039         JNZ     ??USART_Receive_messege_3
    912              {
    913                 if(strstr((char const *)(&p->msg[1]),">"))
   \   00026D                ; Setup parameters for call to function strstr
   \   00026D   7C..         MOV     R4,#`?<Constant ">">` & 0xff
   \   00026F   7D..         MOV     R5,#(`?<Constant ">">` >> 8) & 0xff
   \   000271   12....       LCALL   ?Subroutine10 & 0xFFFF
   \                     ??CrossCallReturnLabel_16:
   \   000274   7003         JNZ     $+5
   \   000276   02....       LJMP    ??USART_Receive_messege_8 & 0xFFFF
    914                 {      
    915                   
    916                   
    917                     //HalLcdWriteString("connected",HAL_LCD_LINE_2);
    918                   //连接成功
    919                    for(i=0; i<4; i++){
   \   000279   7E00         MOV     R6,#0x0
   \   00027B   7F00         MOV     R7,#0x0
    920                      LCD_P16x16Ch(16*i, 4, i+4);
   \                     ??USART_Receive_messege_17:
   \   00027D                ; Setup parameters for call to function LCD_P16x16Ch
   \   00027D   EE           MOV     A,R6
   \   00027E   2404         ADD     A,#0x4
   \   000280   FB           MOV     R3,A
   \   000281   7A04         MOV     R2,#0x4
   \   000283   12....       LCALL   ?Subroutine17 & 0xFFFF
    921                     }
   \                     ??CrossCallReturnLabel_40:
   \   000286   9404         SUBB    A,#0x4
   \   000288   12....       LCALL   ?Subroutine22 & 0xFFFF
   \                     ??CrossCallReturnLabel_55:
   \   00028B   40F0         JC      ??USART_Receive_messege_17
    922                     
    923                      flat=7;
   \   00028D   90....       MOV     DPTR,#flat
   \   000290   7407         MOV     A,#0x7
   \   000292   F0           MOVX    @DPTR,A
    924                      HalUARTWrite(1,concmd,35);
   \   000293                ; Setup parameters for call to function HalUARTWrite
   \   000293   7C23         MOV     R4,#0x23
   \   000295   7D00         MOV     R5,#0x0
   \   000297   85..82       MOV     DPL,?XSP + 0
   \   00029A   85..83       MOV     DPH,?XSP + 1
   \   00029D   AA82         MOV     R2,DPL
   \   00029F   AB83         MOV     R3,DPH
   \   0002A1   7901         MOV     R1,#0x1
   \   0002A3   12....       LCALL   ??HalUARTWrite?relay
    925                    //HalUARTWrite(0,concmd,strlen(concmd));
    926                 }
    927                 else 
    928                 {
    929                    ReSetWifi();//重启WiFi
    930                    Delay_ms(1000);
    931                    HalUARTWrite(1,"AT\r\n",4);
    932                    flat=1;    
    933                 }
    934              }
    935          
    936          }
   \                     ??USART_Receive_messege_3:
   \   0002A6   7487         MOV     A,#-0x79
   \   0002A8   02....       LJMP    ??Subroutine25_0 & 0xFFFF

   \                                 In  segment BANKED_CODE, align 1, keep-with-next
   \                     ?Subroutine17:
   \   000000   12....       LCALL   ?Subroutine21 & 0xFFFF
   \                     ??CrossCallReturnLabel_52:
   \   000003   22           RET

   \                                 In  segment BANKED_CODE, align 1, keep-with-next
   \                     ?Subroutine21:
   \   000000   EE           MOV     A,R6
   \   000001   C4           SWAP    A
   \   000002   54F0         ANL     A,#0xf0
   \   000004   F9           MOV     R1,A
   \   000005   12....       LCALL   ??LCD_P16x16Ch?relay
   \   000008   EE           MOV     A,R6
   \   000009   2401         ADD     A,#0x1
   \   00000B   0E           INC     R6
   \   00000C   EF           MOV     A,R7
   \   00000D   3400         ADDC    A,#0x0
   \   00000F   FF           MOV     R7,A
   \   000010   C3           CLR     C
   \   000011   EE           MOV     A,R6
   \   000012   22           RET

   \                                 In  segment BANKED_CODE, align 1, keep-with-next
   \                     ?Subroutine13:
   \   000000   12....       LCALL   ?Subroutine21 & 0xFFFF
   \                     ??CrossCallReturnLabel_53:
   \   000003   9402         SUBB    A,#0x2
   \   000005   12....       LCALL   ?Subroutine22 & 0xFFFF
   \                     ??CrossCallReturnLabel_56:
   \   000008   22           RET

   \                                 In  segment BANKED_CODE, align 1, keep-with-next
   \                     ?Subroutine22:
   \   000000   EF           MOV     A,R7
   \   000001   9400         SUBB    A,#0x0
   \   000003   A2D2         MOV     C,0xD0 /* PSW */.2
   \   000005   65D0         XRL     A,PSW
   \   000007   33           RLC     A
   \   000008   22           RET

   \                                 In  segment BANKED_CODE, align 1, keep-with-next
   \                     ?Subroutine10:
   \   000000   8E82         MOV     DPL,R6
   \   000002   8F83         MOV     DPH,R7
   \   000004   E0           MOVX    A,@DPTR
   \   000005   2401         ADD     A,#0x1
   \   000007   FA           MOV     R2,A
   \   000008   A3           INC     DPTR
   \   000009   E0           MOVX    A,@DPTR
   \   00000A   3400         ADDC    A,#0x0
   \   00000C   FB           MOV     R3,A
   \   00000D   12....       LCALL   ??strstr?relay
   \   000010   8B..         MOV     ?V0 + 1,R3
   \   000012   EA           MOV     A,R2
   \   000013   45..         ORL     A,?V0 + 1
   \   000015   22           RET

   \                                 In  segment BANKED_CODE, align 1, keep-with-next
   \                     ?Subroutine9:
   \   000000   7901         MOV     R1,#0x1
   \   000002                REQUIRE ??Subroutine27_0
   \   000002                ; // Fall through to label ??Subroutine27_0
    937          
    938          //获取毛皮重量
    939          //****************************************************

   \                                 In  segment BANKED_CODE, align 1, keep-with-next
   \                     ?Subroutine6:
   \   000000   12....       LCALL   ??HX711_Read?relay
   \   000003   90....       MOV     DPTR,#Weight_Maopi
   \   000006                REQUIRE ??Subroutine23_0
   \   000006                ; // Fall through to label ??Subroutine23_0

   \                                 In  segment BANKED_CODE, align 1, keep-with-next
   \                     ??Subroutine23_0:
   \   000000   EA           MOV     A,R2
   \   000001   F0           MOVX    @DPTR,A
   \   000002   A3           INC     DPTR
   \   000003   EB           MOV     A,R3
   \   000004   F0           MOVX    @DPTR,A
   \   000005   A3           INC     DPTR
   \   000006   E4           CLR     A
   \   000007   F0           MOVX    @DPTR,A
   \   000008   A3           INC     DPTR
   \   000009   F0           MOVX    @DPTR,A
   \   00000A   22           RET

   \                                 In  segment BANKED_CODE, align 1, keep-with-next
    940          void Get_Maopi(void)
   \                     Get_Maopi:
    941          {
   \   000000   C082         PUSH    DPL
   \   000002   C083         PUSH    DPH
   \   000004                ; Saved register size: 2
   \   000004                ; Auto size: 0
    942            Weight_Maopi = HX711_Read();    
   \   000004                ; Setup parameters for call to function HX711_Read
   \   000004   12....       LCALL   ?Subroutine6 & 0xFFFF
    943          }
   \                     ??CrossCallReturnLabel_58:
   \   000007   02....       LJMP    ?Subroutine2 & 0xFFFF
    944          //****************************************************
    945          //称重
    946          //****************************************************

   \                                 In  segment BANKED_CODE, align 1, keep-with-next
    947          long Get_Weight(void)
   \                     Get_Weight:
    948          { //char buf_hx711[20];
   \   000000   74F0         MOV     A,#-0x10
   \   000002   12....       LCALL   ?BANKED_ENTER_XDATA
   \   000005                ; Saved register size: 16
   \   000005                ; Auto size: 0
    949            HX711_Buffer = HX711_Read();
   \   000005                ; Setup parameters for call to function HX711_Read
   \   000005   12....       LCALL   ??HX711_Read?relay
   \   000008   90....       MOV     DPTR,#HX711_Buffer
   \   00000B   12....       LCALL   ??Subroutine23_0 & 0xFFFF
    950            //sprintf((char *)buf_hx711,"{HX711_Buffer:%ld,}",HX711_Buffer);
    951             //HalUARTWrite(0,buf_hx711, strlen(buf_hx711));  
    952            Weight_Shiwu = HX711_Buffer;
   \                     ??CrossCallReturnLabel_59:
   \   00000E   90....       MOV     DPTR,#HX711_Buffer
   \   000011   12....       LCALL   ?XLOAD_R2345
   \   000014   90....       MOV     DPTR,#Weight_Shiwu
   \   000017   12....       LCALL   ?XSTORE_R2345
    953            if(Weight_Shiwu>Weight_Maopi){
   \   00001A   90....       MOV     DPTR,#Weight_Shiwu
   \   00001D   78..         MOV     R0,#?V0 + 0
   \   00001F   12....       LCALL   ?L_MOV_X
   \   000022   7583..       MOV     DPH,#(Weight_Maopi >> 8) & 0xff
   \   000025   7582..       MOV     DPL,#Weight_Maopi & 0xff
   \   000028   78..         MOV     R0,#?V0 + 0
   \   00002A   12....       LCALL   ?UL_GT_X
   \   00002D   5012         JNC     ??Get_Weight_0
    954            Weight_Shiwu = Weight_Shiwu - Weight_Maopi;       //获取实物的AD采样数值。
   \   00002F   90....       MOV     DPTR,#Weight_Maopi
   \   000032   78..         MOV     R0,#?V0 + 0
   \   000034   12....       LCALL   ?L_MOV_X
   \   000037   90....       MOV     DPTR,#Weight_Shiwu
   \   00003A   78..         MOV     R0,#?V0 + 0
   \   00003C   12....       LCALL   ?L_SUB_FROM_X
   \   00003F   800C         SJMP    ??Get_Weight_1
    955            }
    956            else{
    957              Weight_Shiwu=0;
   \                     ??Get_Weight_0:
   \   000041   90....       MOV     DPTR,#__Constant_0
   \   000044   12....       LCALL   ?XLOAD_R2345
   \   000047   90....       MOV     DPTR,#Weight_Shiwu
   \   00004A   12....       LCALL   ?XSTORE_R2345
    958            }
    959            
    960             //sprintf((char *)buf_hx711,"{Weight_Shiwu:%ld,}",Weight_Shiwu);
    961             //HalUARTWrite(0,buf_hx711, strlen(buf_hx711));
    962            Weight_Shiwu = (long)((float)Weight_Shiwu/GapValue);  
   \                     ??Get_Weight_1:
   \   00004D   90....       MOV     DPTR,#Weight_Shiwu
   \   000050   78..         MOV     R0,#?V0 + 0
   \   000052   12....       LCALL   ?L_MOV_X
   \   000055   78..         MOV     R0,#?V0 + 0
   \   000057   12....       LCALL   ?UL_TO_FLT
   \   00005A   90....       MOV     DPTR,#__Constant_43d70000
   \   00005D   78..         MOV     R0,#?V0 + 4
   \   00005F   12....       LCALL   ?L_MOV_X
   \   000062   78..         MOV     R0,#?V0 + 0
   \   000064   79..         MOV     R1,#?V0 + 4
   \   000066   12....       LCALL   ?FLT_DIV
   \   000069   78..         MOV     R0,#?V0 + 0
   \   00006B   12....       LCALL   ?FLT_TO_L
   \   00006E   90....       MOV     DPTR,#Weight_Shiwu
   \   000071   78..         MOV     R0,#?V0 + 0
   \   000073   12....       LCALL   ?L_MOV_TO_X
    963            return Weight_Shiwu;
   \   000076   90....       MOV     DPTR,#Weight_Shiwu
   \   000079   12....       LCALL   ?XLOAD_R2345
   \   00007C   7F08         MOV     R7,#0x8
   \   00007E   02....       LJMP    ?BANKED_LEAVE_XDATA
    964          }
    965          
    966          //读压力传感器数据
    967          //#define ADDO P0_1
    968          //#define ADSK P0_0

   \                                 In  segment BANKED_CODE, align 1, keep-with-next
    969          unsigned int HX711_Read(void)
   \                     HX711_Read:
    970          {
   \   000000   C082         PUSH    DPL
   \   000002   C083         PUSH    DPH
   \   000004                ; Saved register size: 2
   \   000004                ; Auto size: 0
    971           unsigned int Count;
    972           unsigned char i;
    973           P0_1=1;
   \   000004   D281         SETB    0x80.1
    974           //ADSK=1;
    975          Delay_us();
   \   000006                ; Setup parameters for call to function Delay_us
   \   000006   12....       LCALL   ??Delay_us?relay
    976           P0_0=0; //使能AD（PD_SCK 置低）
   \   000009   C280         CLR     0x80.0
    977           Delay_us();
   \   00000B                ; Setup parameters for call to function Delay_us
   \   00000B   12....       LCALL   ??Delay_us?relay
    978           Count=0;
   \   00000E   7A00         MOV     R2,#0x0
   \   000010   7B00         MOV     R3,#0x0
    979           while(P0_1); //AD转换未结束则等待，否则开始读取
   \                     ??HX711_Read_0:
   \   000012   A281         MOV     C,0x80.1
   \   000014   40FC         JC      ??HX711_Read_0
    980           for (i=0;i<24;i++)
   \   000016   7818         MOV     R0,#0x18
    981           {
    982           P0_0=1; //PD_SCK 置高（发送脉冲）
   \                     ??HX711_Read_1:
   \   000018   D280         SETB    0x80.0
    983           Count=Count<<1; //下降沿来时变量Count左移一位，右侧补零
   \   00001A   EA           MOV     A,R2
   \   00001B   C3           CLR     C
   \   00001C   33           RLC     A
   \   00001D   FA           MOV     R2,A
   \   00001E   EB           MOV     A,R3
   \   00001F   33           RLC     A
   \   000020   FB           MOV     R3,A
    984           P0_0=0; //PD_SCK 置低
   \   000021   C280         CLR     0x80.0
    985           if(P0_1) Count++;
   \   000023   A281         MOV     C,0x80.1
   \   000025   5008         JNC     ??HX711_Read_2
   \   000027   EA           MOV     A,R2
   \   000028   2401         ADD     A,#0x1
   \   00002A   0A           INC     R2
   \   00002B   EB           MOV     A,R3
   \   00002C   3400         ADDC    A,#0x0
   \   00002E   FB           MOV     R3,A
    986           }
   \                     ??HX711_Read_2:
   \   00002F   18           DEC     R0
   \   000030   E8           MOV     A,R0
   \   000031   70E5         JNZ     ??HX711_Read_1
    987           P0_0=1;
   \   000033   D280         SETB    0x80.0
    988           Count=Count^0x800000;//第25个脉冲下降沿来时，转换数据
    989           P0_0=0;
   \   000035   C280         CLR     0x80.0
    990           return(Count);
   \   000037   02....       LJMP    ?Subroutine2 & 0xFFFF
   \   00003A                REQUIRE _A_P0
    991          }
    992          
    993          /*********************************************************************
    994           * @fn      SampleApp_Send_P2P_Message
    995           *
    996           * @brief   point to point.
    997           *
    998           * @param   none
    999           *
   1000           * @return  none
   1001           */

   \                                 In  segment BANKED_CODE, align 1, keep-with-next
   1002          void SampleApp_Send_P2P_Message( void )
   \                     SampleApp_Send_P2P_Message:
   1003          {
   \   000000   74F4         MOV     A,#-0xc
   \   000002   12....       LCALL   ?BANKED_ENTER_XDATA
   \   000005                ; Saved register size: 12
   \   000005                ; Auto size: 0
   1004           
   1005            //unsigned char pre_txbuf[20];
   1006            /*
   1007            if(getmaopi_flag==0){
   1008             Get_Maopi();
   1009             getmaopi_flag=1;
   1010            }*/
   1011            //读取烟雾传感器引脚上的ad转换值
   1012            GasData = ReadGasData();  
   \   000005                ; Setup parameters for call to function ReadGasData
   \   000005   12....       LCALL   ??ReadGasData?relay
   \   000008   90....       MOV     DPTR,#GasData
   \   00000B   EA           MOV     A,R2
   \   00000C   F0           MOVX    @DPTR,A
   \   00000D   A3           INC     DPTR
   \   00000E   EB           MOV     A,R3
   \   00000F   F0           MOVX    @DPTR,A
   1013             //读取温湿度传感器数据
   1014            DHT11();
   \   000010                ; Setup parameters for call to function DHT11
   \   000010   12....       LCALL   ??DHT11?relay
   1015              //读取压力传感器数据
   1016             unsigned long food=Get_Weight();
   \   000013                ; Setup parameters for call to function Get_Weight
   \   000013   12....       LCALL   ??Get_Weight?relay
   \   000016   8A..         MOV     ?V0 + 0,R2
   \   000018   8B..         MOV     ?V0 + 1,R3
   \   00001A   8C..         MOV     ?V0 + 2,R4
   \   00001C   8D..         MOV     ?V0 + 3,R5
   1017             
   1018            sprintf((char *)TxBuf,"{\"Air\":%d,\"temp\":%d,\"humid\":%d,\"food\":%ld}\r\n",GasData,ucharT_data_H,ucharRH_data_H,food);
   \   00001E                ; Setup parameters for call to function sprintf
   \   00001E   78..         MOV     R0,#?V0 + 0
   \   000020   12....       LCALL   ?PUSH_XSTACK_I_FOUR
   \   000023   90....       MOV     DPTR,#ucharRH_data_H
   \   000026   E0           MOVX    A,@DPTR
   \   000027   F5..         MOV     ?V0 + 0,A
   \   000029   75..00       MOV     ?V0 + 1,#0x0
   \   00002C   78..         MOV     R0,#?V0 + 0
   \   00002E   12....       LCALL   ?PUSH_XSTACK_I_TWO
   \   000031   90....       MOV     DPTR,#ucharT_data_H
   \   000034   E0           MOVX    A,@DPTR
   \   000035   F5..         MOV     ?V0 + 0,A
   \   000037   78..         MOV     R0,#?V0 + 0
   \   000039   12....       LCALL   ?PUSH_XSTACK_I_TWO
   \   00003C   90....       MOV     DPTR,#GasData
   \   00003F   12....       LCALL   ?PUSH_XSTACK8_X_TWO
   \   000042   7C..         MOV     R4,#`?<Constant "{\\"Air\\":%d,\\"temp\\":%d,\\"...">` & 0xff
   \   000044   7D..         MOV     R5,#(`?<Constant "{\\"Air\\":%d,\\"temp\\":%d,\\"...">` >> 8) & 0xff
   \   000046   7A..         MOV     R2,#TxBuf & 0xff
   \   000048   7B..         MOV     R3,#(TxBuf >> 8) & 0xff
   \   00004A   12....       LCALL   ??sprintf?relay
   \   00004D   740A         MOV     A,#0xa
   \   00004F   12....       LCALL   ?DEALLOC_XSTACK8
   1019            HalUARTWrite(0,TxBuf, strlen(TxBuf));                 //串口显示  
                                                ^
Warning[Pe167]: argument of type "unsigned char *" is incompatible with
          parameter of type "char const *"
   \   000052                ; Setup parameters for call to function HalUARTWrite
   \   000052                ; Setup parameters for call to function strlen
   \   000052   7A..         MOV     R2,#TxBuf & 0xff
   \   000054   7B..         MOV     R3,#(TxBuf >> 8) & 0xff
   \   000056   12....       LCALL   ??strlen?relay
   \   000059   EA           MOV     A,R2
   \   00005A   FC           MOV     R4,A
   \   00005B   EB           MOV     A,R3
   \   00005C   FD           MOV     R5,A
   \   00005D   7A..         MOV     R2,#TxBuf & 0xff
   \   00005F   7B..         MOV     R3,#(TxBuf >> 8) & 0xff
   \   000061   7900         MOV     R1,#0x0
   \   000063   12....       LCALL   ??HalUARTWrite?relay
   1020              
   1021            if ( AF_DataRequest( &SampleApp_P2P_DstAddr, &SampleApp_epDesc,
   1022                                 SAMPLEAPP_P2P_CLUSTERID,
   1023                                strlen(TxBuf),
                                              ^
Warning[Pe167]: argument of type "unsigned char *" is incompatible with
          parameter of type "char const *"
   1024                                TxBuf,
   1025                                 &SampleApp_TransID,
   1026                                 AF_DISCV_ROUTE,
   1027                                 AF_DEFAULT_RADIUS ) == afStatus_SUCCESS )
   \   000066                ; Setup parameters for call to function AF_DataRequest
   \   000066   75..1E       MOV     ?V0 + 0,#0x1e
   \   000069   78..         MOV     R0,#?V0 + 0
   \   00006B   12....       LCALL   ?PUSH_XSTACK_I_ONE
   \   00006E   75....       MOV     ?V0 + 0,#SampleApp_TransID & 0xff
   \   000071   75....       MOV     ?V0 + 1,#(SampleApp_TransID >> 8) & 0xff
   \   000074   78..         MOV     R0,#?V0 + 0
   \   000076   12....       LCALL   ?PUSH_XSTACK_I_TWO
   \   000079   75....       MOV     ?V0 + 0,#TxBuf & 0xff
   \   00007C   75....       MOV     ?V0 + 1,#(TxBuf >> 8) & 0xff
   \   00007F   78..         MOV     R0,#?V0 + 0
   \   000081   12....       LCALL   ?PUSH_XSTACK_I_TWO
   \   000084                ; Setup parameters for call to function strlen
   \   000084   7A..         MOV     R2,#TxBuf & 0xff
   \   000086   7B..         MOV     R3,#(TxBuf >> 8) & 0xff
   \   000088   12....       LCALL   ??strlen?relay
   \   00008B   8A..         MOV     ?V0 + 0,R2
   \   00008D   8B..         MOV     ?V0 + 1,R3
   \   00008F   78..         MOV     R0,#?V0 + 0
   \   000091   12....       LCALL   ?PUSH_XSTACK_I_TWO
   \   000094   75..04       MOV     ?V0 + 0,#0x4
   \   000097   75..00       MOV     ?V0 + 1,#0x0
   \   00009A   78..         MOV     R0,#?V0 + 0
   \   00009C   12....       LCALL   ?PUSH_XSTACK_I_TWO
   \   00009F   7920         MOV     R1,#0x20
   \   0000A1   7C..         MOV     R4,#SampleApp_epDesc & 0xff
   \   0000A3   7D..         MOV     R5,#(SampleApp_epDesc >> 8) & 0xff
   \   0000A5   7A..         MOV     R2,#SampleApp_P2P_DstAddr & 0xff
   \   0000A7   7B..         MOV     R3,#(SampleApp_P2P_DstAddr >> 8) & 0xff
   \   0000A9   12....       LCALL   ??AF_DataRequest?relay
   \   0000AC   7409         MOV     A,#0x9
   \   0000AE   12....       LCALL   ?DEALLOC_XSTACK8
   \   0000B1   E9           MOV     A,R1
   \   0000B2   600D         JZ      ??SampleApp_Send_P2P_Message_0
   1028            {
   1029            }
   1030            else
   1031            {
   1032               HalUARTWrite(0,"TxBuf error", 11); 
   \   0000B4                ; Setup parameters for call to function HalUARTWrite
   \   0000B4   7C0B         MOV     R4,#0xb
   \   0000B6   7D00         MOV     R5,#0x0
   \   0000B8   7A..         MOV     R2,#`?<Constant "TxBuf error">` & 0xff
   \   0000BA   7B..         MOV     R3,#(`?<Constant "TxBuf error">` >> 8) & 0xff
   \   0000BC   7900         MOV     R1,#0x0
   \   0000BE   12....       LCALL   ??HalUARTWrite?relay
   1033              // Error occurred in request to send.
   1034            }
   1035          /*
   1036             if ( AF_DataRequest( &SampleApp_P2P_DstAddr, &SampleApp_epDesc,
   1037                                 SAMPLEAPP_PERIODIC_CLUSTERID,
   1038                                strlen(pre_txbuf),
   1039                                pre_txbuf,
   1040                                 &SampleApp_TransID,
   1041                                 AF_DISCV_ROUTE,
   1042                                 AF_DEFAULT_RADIUS ) == afStatus_SUCCESS )
   1043            {
   1044            }
   1045            else
   1046            {
   1047               HalUARTWrite(0,"pre_txbuf error", 15); 
   1048              // Error occurred in request to send.
   1049            }
   1050          */
   1051          }
   \                     ??SampleApp_Send_P2P_Message_0:
   \   0000C1   02....       LJMP    ?Subroutine0 & 0xFFFF

   \                                 In  segment XDATA_ID, align 1, keep-with-next
   \                     `?<Initializer for flat>`:
   \   000000   01           DB 1

   \                                 In  segment BANK_RELAYS, align 1
   \                     ??SampleApp_Init?relay:
   \   000000   12....       LCALL   ?BDISPATCH
   \   000003   ......       DC24    SampleApp_Init

   \                                 In  segment BANK_RELAYS, align 1
   \                     ??SampleApp_ProcessEvent?relay:
   \   000000   12....       LCALL   ?BDISPATCH
   \   000003   ......       DC24    SampleApp_ProcessEvent

   \                                 In  segment BANK_RELAYS, align 1
   \                     ??SampleApp_HandleKeys?relay:
   \   000000   12....       LCALL   ?BDISPATCH
   \   000003   ......       DC24    SampleApp_HandleKeys

   \                                 In  segment BANK_RELAYS, align 1
   \                     ??send_onenet?relay:
   \   000000   12....       LCALL   ?BDISPATCH
   \   000003   ......       DC24    send_onenet

   \                                 In  segment BANK_RELAYS, align 1
   \                     ??publish_msg?relay:
   \   000000   12....       LCALL   ?BDISPATCH
   \   000003   ......       DC24    publish_msg

   \                                 In  segment BANK_RELAYS, align 1
   \                     ??sub_msg?relay:
   \   000000   12....       LCALL   ?BDISPATCH
   \   000003   ......       DC24    sub_msg

   \                                 In  segment BANK_RELAYS, align 1
   \                     ??get_data?relay:
   \   000000   12....       LCALL   ?BDISPATCH
   \   000003   ......       DC24    get_data

   \                                 In  segment BANK_RELAYS, align 1
   \                     ??SampleApp_MessageMSGCB?relay:
   \   000000   12....       LCALL   ?BDISPATCH
   \   000003   ......       DC24    SampleApp_MessageMSGCB

   \                                 In  segment BANK_RELAYS, align 1
   \                     ??SampleApp_SendPeriodicMessage?relay:
   \   000000   12....       LCALL   ?BDISPATCH
   \   000003   ......       DC24    SampleApp_SendPeriodicMessage

   \                                 In  segment BANK_RELAYS, align 1
   \                     ??SampleApp_SendFlashMessage?relay:
   \   000000   12....       LCALL   ?BDISPATCH
   \   000003   ......       DC24    SampleApp_SendFlashMessage

   \                                 In  segment BANK_RELAYS, align 1
   \                     ??ReadGasData?relay:
   \   000000   12....       LCALL   ?BDISPATCH
   \   000003   ......       DC24    ReadGasData

   \                                 In  segment BANK_RELAYS, align 1
   \                     ??ReSetWifi?relay:
   \   000000   12....       LCALL   ?BDISPATCH
   \   000003   ......       DC24    ReSetWifi

   \                                 In  segment BANK_RELAYS, align 1
   \                     ??USART_Receive_messege?relay:
   \   000000   12....       LCALL   ?BDISPATCH
   \   000003   ......       DC24    USART_Receive_messege

   \                                 In  segment BANK_RELAYS, align 1
   \                     ??Get_Maopi?relay:
   \   000000   12....       LCALL   ?BDISPATCH
   \   000003   ......       DC24    Get_Maopi

   \                                 In  segment BANK_RELAYS, align 1
   \                     ??Get_Weight?relay:
   \   000000   12....       LCALL   ?BDISPATCH
   \   000003   ......       DC24    Get_Weight

   \                                 In  segment BANK_RELAYS, align 1
   \                     ??HX711_Read?relay:
   \   000000   12....       LCALL   ?BDISPATCH
   \   000003   ......       DC24    HX711_Read

   \                                 In  segment BANK_RELAYS, align 1
   \                     ??SampleApp_Send_P2P_Message?relay:
   \   000000   12....       LCALL   ?BDISPATCH
   \   000003   ......       DC24    SampleApp_Send_P2P_Message

   \                                 In  segment XDATA_ROM_C, align 1
   \                     `?<Constant "success\\n">`:
   \   000000   73756363     DB "success\012"
   \            6573730A
   \            00      

   \                                 In  segment XDATA_ROM_C, align 1
   \                     `?<Constant "AT\\r\\n">`:
   \   000000   41540D0A     DB "AT\015\012"
   \            00      

   \                                 In  segment XDATA_ROM_C, align 1
   \                     `?<Constant "Group 1">`:
   \   000000   47726F75     DB "Group 1"
   \            70203100

   \                                 In  segment XDATA_ROM_C, align 1
   \                     `?<Constant ",">`:
   \   000000   2C00         DB ","

   \                                 In  segment XDATA_ROM_C, align 1
   \                     `?<Constant {192, 0}>`:
   \   000000   C0           DB 192
   \   000001   00           DB 0

   \                                 In  segment XDATA_ROM_C, align 1
   \                     `?<Constant "\\000">`:
   \   000000   0000         DB 0, 0

   \                                 In  segment XDATA_ROM_C, align 1
   \                     `?<Constant "temp:%d">`:
   \   000000   74656D70     DB "temp:%d"
   \            3A256400

   \                                 In  segment XDATA_ROM_C, align 1
   \                     `?<Constant "\\"temp\\"">`:
   \   000000   2274656D     DB "\"temp\""
   \            702200  

   \                                 In  segment XDATA_ROM_C, align 1
   \                     `?<Constant "humid:%d">`:
   \   000000   68756D69     DB "humid:%d"
   \            643A2564
   \            00      

   \                                 In  segment XDATA_ROM_C, align 1
   \                     `?<Constant "\\"humid\\"">`:
   \   000000   2268756D     DB "\"humid\""
   \            69642200

   \                                 In  segment XDATA_ROM_C, align 1
   \                     `?<Constant "air:%d">`:
   \   000000   6169723A     DB "air:%d"
   \            256400  

   \                                 In  segment XDATA_ROM_C, align 1
   \                     `?<Constant "\\"Air\\"">`:
   \   000000   22416972     DB "\"Air\""
   \            2200    

   \                                 In  segment XDATA_ROM_C, align 1
   \                     `?<Constant "food:%d">`:
   \   000000   666F6F64     DB "food:%d"
   \            3A256400

   \                                 In  segment XDATA_ROM_C, align 1
   \                     `?<Constant "\\"food\\"">`:
   \   000000   22666F6F     DB "\"food\""
   \            642200  

   \                                 In  segment XDATA_ROM_C, align 1
   \                     `?<Constant {16, 33, 0, 4, 77, 81, 84, 84, 4, 1`:
   \   000000   10           DB 16
   \   000001   21           DB 33
   \   000002   00           DB 0
   \   000003   04           DB 4
   \   000004   4D           DB 77
   \   000005   51           DB 81
   \   000006   54           DB 84
   \   000007   54           DB 84
   \   000008   04           DB 4
   \   000009   C0           DB 192
   \   00000A   00           DB 0
   \   00000B   78           DB 120
   \   00000C   00           DB 0
   \   00000D   0A           DB 10
   \   00000E   31           DB 49
   \   00000F   30           DB 48
   \   000010   37           DB 55
   \   000011   39           DB 57
   \   000012   39           DB 57
   \   000013   36           DB 54
   \   000014   38           DB 56
   \   000015   39           DB 57
   \   000016   34           DB 52
   \   000017   37           DB 55
   \   000018   00           DB 0
   \   000019   06           DB 6
   \   00001A   35           DB 53
   \   00001B   39           DB 57
   \   00001C   30           DB 48
   \   00001D   39           DB 57
   \   00001E   34           DB 52
   \   00001F   35           DB 53
   \   000020   00           DB 0
   \   000021   01           DB 1
   \   000022   32           DB 50

   \                                 In  segment XDATA_ROM_C, align 1
   \                     `?<Constant "OK">`:
   \   000000   4F4B00       DB "OK"

   \                                 In  segment XDATA_ROM_C, align 1
   \                     `?<Constant "AT+CWMODE=3\\r\\n">`:
   \   000000   41542B43     DB "AT+CWMODE=3\015\012"
   \            574D4F44
   \            453D330D
   \            0A00    

   \                                 In  segment XDATA_ROM_C, align 1
   \                     `?<Constant "ERROR">`:
   \   000000   4552524F     DB "ERROR"
   \            5200    

   \                                 In  segment XDATA_ROM_C, align 1
   \                     `?<Constant "AT+CWJAP= \\"%s\\",\\"%s\\"\\r\\n">`:
   \   000000   41542B43     DB "AT+CWJAP= \"%s\",\"%s\"\015\012"
   \            574A4150
   \            3D202225
   \            73222C22
   \            2573220D
   \            0A00    

   \                                 In  segment XDATA_ROM_C, align 1
   \                     `?<Constant "Redmi_K40">`:
   \   000000   5265646D     DB "Redmi_K40"
   \            695F4B34
   \            3000    

   \                                 In  segment XDATA_ROM_C, align 1
   \                     `?<Constant "15876376419">`:
   \   000000   31353837     DB "15876376419"
   \            36333736
   \            34313900

   \                                 In  segment XDATA_ROM_C, align 1
   \                     `?<Constant "AT+CIPSTART=\\"TCP\\",\\"18...">`:
   \   000000   41542B43     DB "AT+CIPSTART=\"TCP\",\"183.230.40.39\",6002\015\012"
   \            49505354
   \            4152543D
   \            22544350
   \            222C2231
   \            38332E32
   \            33302E34
   \            302E3339
   \            222C3630
   \            30320D0A
   \            00      

   \                                 In  segment XDATA_ROM_C, align 1
   \                     `?<Constant "OneNET">`:
   \   000000   4F6E654E     DB "OneNET"
   \            455400  

   \                                 In  segment XDATA_ROM_C, align 1
   \                     `?<Constant "AT+CIPMODE=1\\r\\n">`:
   \   000000   41542B43     DB "AT+CIPMODE=1\015\012"
   \            49504D4F
   \            44453D31
   \            0D0A00  

   \                                 In  segment XDATA_ROM_C, align 1
   \                     `?<Constant "cipmode\\n">`:
   \   000000   6369706D     DB "cipmode\012"
   \            6F64650A
   \            00      

   \                                 In  segment XDATA_ROM_C, align 1
   \                     `?<Constant "AT+CIPSEND\\r\\n">`:
   \   000000   41542B43     DB "AT+CIPSEND\015\012"
   \            49505345
   \            4E440D0A
   \            00      

   \                                 In  segment XDATA_ROM_C, align 1
   \                     `?<Constant "cipsend\\n">`:
   \   000000   63697073     DB "cipsend\012"
   \            656E640A
   \            00      

   \                                 In  segment XDATA_ROM_C, align 1
   \                     `?<Constant ">">`:
   \   000000   3E00         DB ">"

   \                                 In  segment XDATA_ROM_C, align 1
   \                     `?<Constant "{\\"Air\\":%d,\\"temp\\":%d,\\"...">`:
   \   000000   7B224169     DB "{\"Air\":%d,\"temp\":%d,\"humid\":%d,\"food\":%ld}\015\012"
   \            72223A25
   \            642C2274
   \            656D7022
   \            3A25642C
   \            2268756D
   \            6964223A
   \            25642C22
   \            666F6F64
   \            223A256C
   \            647D0D0A
   \            00      

   \                                 In  segment XDATA_ROM_C, align 1
   \                     `?<Constant "TxBuf error">`:
   \   000000   54784275     DB "TxBuf error"
   \            66206572
   \            726F7200

   \                                 In  segment XDATA_ROM_C, align 1
   \                     __Constant_0:
   \   000000   00000000     DD 0

   \                                 In  segment XDATA_ROM_C, align 1
   \                     __Constant_43d70000:
   \   000000   0000D743     DD 43D70000H
   1052          /*********************************************************************
   1053          *********************************************************************/

   Maximum stack usage in bytes:

     Function                       ISTACK PSTACK XSTACK
     --------                       ------ ------ ------
     Get_Maopi                          2      0      0
       -> HX711_Read                    4      0      0
     Get_Weight                         2      0     28
       -> HX711_Read                    0      0     32
     HX711_Read                         2      0     16
       -> Delay_us                      4      0      0
       -> Delay_us                      4      0      0
     ReSetWifi                          2      0    145
       -> Delay_ms                      4      0      0
       -> Delay_ms                      4      0      0
     ReadGasData                        0      0     12
     SampleApp_HandleKeys               0      0     22
       -> SampleApp_SendFlashMessage
                                        0      0     20
       -> aps_FindGroup                 0      0     20
       -> aps_RemoveGroup               0      0     20
       -> aps_AddGroup                  0      0     20
     SampleApp_Init                     0      0     14
       -> MT_UartInit                   0      0     22
       -> MT_UartRegisterTaskID         0      0     22
       -> HalUARTWrite                  0      0     22
       -> ReSetWifi                     0      0     22
       -> Delay_ms                      0      0     22
       -> HalUARTWrite                  0      0     22
       -> HX711_Read                    0      0     22
       -> afRegister                    0      0     22
       -> RegisterForKeys               0      0     22
       -> osal_memcpy                   0      0     28
       -> aps_AddGroup                  0      0     22
     SampleApp_MessageMSGCB             2      0    130
       -> memset                        0      0    236
       -> strcpy                        0      0    232
       -> HalUARTWrite                  0      0    232
       -> HalUARTWrite                  0      0    232
       -> HalUARTWrite                  0      0    232
       -> sub_msg                       0      0    232
       -> send_onenet                   0      0    232
       -> publish_msg                   0      0    232
       -> memset                        0      0    236
       -> get_data                      0      0    236
       -> sprintf                       0      0    236
       -> HalLcdWriteString             0      0    232
       -> memset                        0      0    236
       -> get_data                      0      0    236
       -> sprintf                       0      0    236
       -> HalLcdWriteString             0      0    232
       -> memset                        0      0    236
       -> get_data                      0      0    236
       -> sprintf                       0      0    236
       -> HalLcdWriteString             0      0    232
       -> memset                        0      0    236
       -> get_data                      0      0    236
       -> sprintf                       0      0    236
       -> HalLcdWriteString             0      0    232
       -> HalLedBlink                   0      0    232
     SampleApp_ProcessEvent             0      0     12
       -> osal_msg_receive              0      0     24
       -> osal_start_timerEx            0      0     24
       -> osal_msg_deallocate           0      0     24
       -> osal_msg_receive              0      0     24
       -> SampleApp_HandleKeys          0      0     24
       -> SampleApp_MessageMSGCB        0      0     24
       -> USART_Receive_messege         0      0     24
       -> SampleApp_Send_P2P_Message
                                        0      0     24
       -> osal_rand                     0      0     24
       -> osal_start_timerEx            0      0     24
     SampleApp_SendFlashMessage         1      0     32
       -> AF_DataRequest                0      0     44
     SampleApp_SendPeriodicMessage      0      0     19
       -> AF_DataRequest                0      0     38
     SampleApp_Send_P2P_Message         0      0     34
       -> ReadGasData                   0      0     24
       -> DHT11                         0      0     24
       -> Get_Weight                    0      0     24
       -> sprintf                       0      0     44
       -> strlen                        0      0     24
       -> HalUARTWrite                  0      0     24
       -> strlen                        0      0     34
       -> AF_DataRequest                0      0     42
       -> HalUARTWrite                  0      0     24
     USART_Receive_messege              2      0    161
       -> sub_msg                       0      0    290
       -> HalUARTWrite                  0      0    290
       -> HalUARTWrite                  0      0    290
       -> HalUARTWrite                  0      0    290
       -> strstr                        0      0    290
       -> HalUARTWrite                  0      0    290
       -> Delay_ms                      0      0    290
       -> strstr                        0      0    290
       -> ReSetWifi                     0      0    290
       -> Delay_ms                      0      0    290
       -> HalUARTWrite                  0      0    290
       -> strstr                        0      0    290
       -> memset                        0      0    294
       -> sprintf                       0      0    298
       -> strlen                        0      0    290
       -> HalUARTWrite                  0      0    290
       -> LCD_CLS                       0      0    290
       -> LCD_P16x16Ch                  0      0    290
       -> LCD_P16x16Ch                  0      0    290
       -> Delay_ms                      0      0    290
       -> Delay_ms                      0      0    290
       -> Delay_ms                      0      0    290
       -> Delay_ms                      0      0    290
       -> HalUARTWrite                  0      0    290
       -> LCD_P16x16Ch                  0      0    290
       -> LCD_P8x16Str                  0      0    290
       -> LCD_P16x16Ch                  0      0    290
       -> Delay_ms                      0      0    290
       -> Delay_ms                      0      0    290
       -> Delay_ms                      0      0    290
       -> strstr                        0      0    290
       -> HalUARTWrite                  0      0    290
       -> HalUARTWrite                  0      0    290
       -> Delay_ms                      0      0    290
       -> strstr                        0      0    290
       -> HalUARTWrite                  0      0    290
       -> HalUARTWrite                  0      0    290
       -> Delay_ms                      0      0    290
       -> strstr                        0      0    290
       -> LCD_P16x16Ch                  0      0    290
       -> HalUARTWrite                  0      0    290
     get_data                           0      0    138
       -> strlen                        0      0     40
       -> strstr                        0      0     40
       -> strstr                        0      0     40
       -> strlen                        0      0     40
       -> strlen                        0      0     40
     publish_msg                        1      0    192
       -> memset                        0      0    152
       -> strcpy                        0      0    148
       -> HalUARTWrite                  0      0    148
     send_onenet                        1      0    192
       -> memset                        0      0    152
       -> strcpy                        0      0    148
       -> HalUARTWrite                  0      0    148
     sub_msg                            0      0    221
       -> memset                        0      0    152
       -> HalUARTWrite                  0      0    148


   Segment part sizes:

     Function/Label                                 Bytes
     --------------                                 -----
     _A_P0                                             1
     ADCCON1                                           1
     ADCCON3                                           1
     ADCL                                              1
     ADCH                                              1
     ADCCFG                                            1
     P0SEL                                             1
     P0DIR                                             1
     flat                                              1
     con_succ                                          1
     food_flag                                         1
     getmaopi_flag                                     1
     HX711_Buffer                                      4
     Weight_Maopi                                      4
     Weight_Shiwu                                      4
     Weight                                            4
     count                                             2
     Sethour                                           1
     Setmiunte                                         1
     SampleApp_ClusterList                             4
     SampleApp_SimpleDesc                             12
     SampleApp_epDesc                                  6
     SampleApp_TaskID                                  1
     SampleApp_NwkState                                1
     SampleApp_TransID                                 1
     SampleApp_Periodic_DstAddr                       12
     SampleApp_Flash_DstAddr                          12
     SampleApp_P2P_DstAddr                            12
     SampleApp_Group                                  18
     SampleAppPeriodicCounter                          1
     SampleAppFlashCounter                             1
     SampleApp_Init                                  204
     ?Subroutine8                                     30
     SampleApp_ProcessEvent                          186
     ?Subroutine0                                      5
     SampleApp_HandleKeys                             62
     ??Subroutine26_0                                  5
     send_onenet                                     140
     ?Subroutine15                                    15
     ?Subroutine5                                     17
     ?Subroutine4                                     27
     ?Subroutine12                                    10
     ?Subroutine1                                      5
     ??Subroutine24_0                                 18
     ??Subroutine25_0                                  3
     publish_msg                                     108
     sub_msg                                         119
     get_data                                        293
     SampleApp_MessageMSGCB                          662
     ?Subroutine20                                    10
     ?Subroutine19                                     6
     ?Subroutine18                                    10
     ?Subroutine16                                    16
     ?Subroutine14                                    14
     ?Subroutine11                                    18
     ?Subroutine3                                     13
     ??Subroutine27_0                                  7
     ?Subroutine7                                     16
     SampleApp_SendPeriodicMessage                    68
     SampleApp_SendFlashMessage                      117
     TxBuf                                            40
     GasData                                           2
     ReadGasData                                      25
     ReSetWifi                                        25
     ?Subroutine2                                      7
     USART_Receive_messege                           683
     ?Subroutine17                                     4
     ?Subroutine21                                    19
     ?Subroutine13                                     9
     ?Subroutine22                                     9
     ?Subroutine10                                    22
     ?Subroutine9                                      2
     ?Subroutine6                                      6
     ??Subroutine23_0                                 11
     Get_Maopi                                        10
     Get_Weight                                      129
     HX711_Read                                       58
     SampleApp_Send_P2P_Message                      196
     ?<Initializer for flat>                           1
     ??SampleApp_Init?relay                            6
     ??SampleApp_ProcessEvent?relay                    6
     ??SampleApp_HandleKeys?relay                      6
     ??send_onenet?relay                               6
     ??publish_msg?relay                               6
     ??sub_msg?relay                                   6
     ??get_data?relay                                  6
     ??SampleApp_MessageMSGCB?relay                    6
     ??SampleApp_SendPeriodicMessage?relay             6
     ??SampleApp_SendFlashMessage?relay                6
     ??ReadGasData?relay                               6
     ??ReSetWifi?relay                                 6
     ??USART_Receive_messege?relay                     6
     ??Get_Maopi?relay                                 6
     ??Get_Weight?relay                                6
     ??HX711_Read?relay                                6
     ??SampleApp_Send_P2P_Message?relay                6
     ?<Constant "success\n">                           9
     ?<Constant "AT\r\n">                              5
     ?<Constant "Group 1">                             8
     ?<Constant ",">                                   2
     ?<Constant {192, 0}>                              2
     ?<Constant "\000">                                2
     ?<Constant "temp:%d">                             8
     ?<Constant "\"temp\"">                            7
     ?<Constant "humid:%d">                            9
     ?<Constant "\"humid\"">                           8
     ?<Constant "air:%d">                              7
     ?<Constant "\"Air\"">                             6
     ?<Constant "food:%d">                             8
     ?<Constant "\"food\"">                            7
     ?<Constant {16, 33, 0, 4, 77, 81, 84, 84, 4, 1   35
     ?<Constant "OK">                                  3
     ?<Constant "AT+CWMODE=3\r\n">                    14
     ?<Constant "ERROR">                               6
     ?<Constant "AT+CWJAP= \"%s\",\"%s\"\r\n">        22
     ?<Constant "Redmi_K40">                          10
     ?<Constant "15876376419">                        12
     ?<Constant "AT+CIPSTART=\"TCP\",\"18...">        41
     ?<Constant "OneNET">                              7
     ?<Constant "AT+CIPMODE=1\r\n">                   15
     ?<Constant "cipmode\n">                           9
     ?<Constant "AT+CIPSEND\r\n">                     13
     ?<Constant "cipsend\n">                           9
     ?<Constant ">">                                   2
     ?<Constant "{\"Air\":%d,\"temp\":%d,\"...">      45
     ?<Constant "TxBuf error">                        12
     __Constant_0                                      4
     __Constant_43d70000                               4

 
 3 419 bytes in segment BANKED_CODE
   102 bytes in segment BANK_RELAYS
     8 bytes in segment SFR_AN
     1 byte  in segment XDATA_I
     1 byte  in segment XDATA_ID
   367 bytes in segment XDATA_ROM_C
   130 bytes in segment XDATA_Z
 
 3 522 bytes of CODE  memory
   359 bytes of CONST memory (+ 8 bytes shared)
     0 bytes of DATA  memory (+ 8 bytes shared)
   131 bytes of XDATA memory

Errors: none
Warnings: 20
